; ModuleID = '../../../../example.cpp'
source_filename = "../../../../example.cpp"
target datalayout = "e-m:e-i64:64-f80:128-n8:16:32:64-S128"
target triple = "x86_64-unknown-linux-gnu"

%"class.std::ios_base::Init" = type { i8 }
%"class.std::basic_ostream" = type { i32 (...)**, %"class.std::basic_ios" }
%"class.std::basic_ios" = type { %"class.std::ios_base", %"class.std::basic_ostream"*, i8, i8, %"class.std::basic_streambuf"*, %"class.std::ctype"*, %"class.std::num_put"*, %"class.std::num_get"* }
%"class.std::ios_base" = type { i32 (...)**, i64, i64, i32, i32, i32, %"struct.std::ios_base::_Callback_list"*, %"struct.std::ios_base::_Words", [8 x %"struct.std::ios_base::_Words"], i32, %"struct.std::ios_base::_Words"*, %"class.std::locale" }
%"struct.std::ios_base::_Callback_list" = type { %"struct.std::ios_base::_Callback_list"*, void (i32, %"class.std::ios_base"*, i32)*, i32, i32 }
%"struct.std::ios_base::_Words" = type { i8*, i64 }
%"class.std::locale" = type { %"class.std::locale::_Impl"* }
%"class.std::locale::_Impl" = type { i32, %"class.std::locale::facet"**, i64, %"class.std::locale::facet"**, i8** }
%"class.std::locale::facet" = type <{ i32 (...)**, i32, [4 x i8] }>
%"class.std::basic_streambuf" = type { i32 (...)**, i8*, i8*, i8*, i8*, i8*, i8*, %"class.std::locale" }
%"class.std::ctype" = type <{ %"class.std::locale::facet.base", [4 x i8], %struct.__locale_struct*, i8, [7 x i8], i32*, i32*, i16*, i8, [256 x i8], [256 x i8], i8, [6 x i8] }>
%"class.std::locale::facet.base" = type <{ i32 (...)**, i32 }>
%struct.__locale_struct = type { [13 x %struct.__locale_data*], i16*, i32*, i32*, [13 x i8*] }
%struct.__locale_data = type opaque
%"class.std::num_put" = type { %"class.std::locale::facet.base", [4 x i8] }
%"class.std::num_get" = type { %"class.std::locale::facet.base", [4 x i8] }
%"class.hls::stream" = type { i32 (...)**, %"class.std::__cxx11::basic_string", %"class.std::deque" }
%"class.std::__cxx11::basic_string" = type { %"struct.std::__cxx11::basic_string<char, std::char_traits<char>, std::allocator<char> >::_Alloc_hider", i64, %union.anon }
%"struct.std::__cxx11::basic_string<char, std::char_traits<char>, std::allocator<char> >::_Alloc_hider" = type { i8* }
%union.anon = type { i64, [8 x i8] }
%"class.std::deque" = type { %"class.std::_Deque_base" }
%"class.std::_Deque_base" = type { %"struct.std::_Deque_base<ap_axis<32, 2, 5, 6>, std::allocator<ap_axis<32, 2, 5, 6> > >::_Deque_impl" }
%"struct.std::_Deque_base<ap_axis<32, 2, 5, 6>, std::allocator<ap_axis<32, 2, 5, 6> > >::_Deque_impl" = type { %struct.ap_axis**, i64, %"struct.std::_Deque_iterator", %"struct.std::_Deque_iterator" }
%struct.ap_axis = type <{ %struct.ap_int, %struct.ap_uint, %struct.ap_uint, %struct.ap_uint.6, %struct.ap_uint.10, %struct.ap_uint.14, %struct.ap_uint.18, [2 x i8] }>
%struct.ap_int = type { %struct.ap_int_base }
%struct.ap_int_base = type { %struct.ssdm_int_sim }
%struct.ssdm_int_sim = type { %class.ap_private }
%class.ap_private = type { i32 }
%struct.ap_uint = type { %struct.ap_int_base.3 }
%struct.ap_int_base.3 = type { %struct.ssdm_int_sim.4 }
%struct.ssdm_int_sim.4 = type { %class.ap_private.5 }
%class.ap_private.5 = type { i8 }
%struct.ap_uint.6 = type { %struct.ap_int_base.7 }
%struct.ap_int_base.7 = type { %struct.ssdm_int_sim.8 }
%struct.ssdm_int_sim.8 = type { %class.ap_private.9 }
%class.ap_private.9 = type { i8 }
%struct.ap_uint.10 = type { %struct.ap_int_base.11 }
%struct.ap_int_base.11 = type { %struct.ssdm_int_sim.12 }
%struct.ssdm_int_sim.12 = type { %class.ap_private.13 }
%class.ap_private.13 = type { i8 }
%struct.ap_uint.14 = type { %struct.ap_int_base.15 }
%struct.ap_int_base.15 = type { %struct.ssdm_int_sim.16 }
%struct.ssdm_int_sim.16 = type { %class.ap_private.17 }
%class.ap_private.17 = type { i8 }
%struct.ap_uint.18 = type { %struct.ap_int_base.19 }
%struct.ap_int_base.19 = type { %struct.ssdm_int_sim.20 }
%struct.ssdm_int_sim.20 = type { %class.ap_private.21 }
%class.ap_private.21 = type { i8 }
%"struct.std::_Deque_iterator" = type { %struct.ap_axis*, %struct.ap_axis*, %struct.ap_axis*, %struct.ap_axis** }
%"class.hls::stream.22" = type { i32 (...)**, %"class.std::__cxx11::basic_string", %"class.std::deque.23" }
%"class.std::deque.23" = type { %"class.std::_Deque_base.24" }
%"class.std::_Deque_base.24" = type { %"struct.std::_Deque_base<int, std::allocator<int> >::_Deque_impl" }
%"struct.std::_Deque_base<int, std::allocator<int> >::_Deque_impl" = type { i32**, i64, %"struct.std::_Deque_iterator.28", %"struct.std::_Deque_iterator.28" }
%"struct.std::_Deque_iterator.28" = type { i32*, i32*, i32*, i32** }
%"class.std::__cxx11::basic_stringstream" = type { %"class.std::basic_iostream.base", %"class.std::__cxx11::basic_stringbuf", %"class.std::basic_ios" }
%"class.std::basic_iostream.base" = type { %"class.std::basic_istream.base", %"class.std::basic_ostream.base" }
%"class.std::basic_istream.base" = type { i32 (...)**, i64 }
%"class.std::basic_ostream.base" = type { i32 (...)** }
%"class.std::__cxx11::basic_stringbuf" = type { %"class.std::basic_streambuf", i32, %"class.std::__cxx11::basic_string" }
%"class.std::type_info" = type { i32 (...)**, i8* }
%"class.std::allocator.25" = type { i8 }
%"class.__gnu_cxx::new_allocator.26" = type { i8 }
%"class.std::allocator.29" = type { i8 }
%"class.__gnu_cxx::new_allocator.30" = type { i8 }
%"class.std::allocator.0" = type { i8 }
%"class.__gnu_cxx::new_allocator.1" = type { i8 }
%"class.std::allocator.32" = type { i8 }
%"class.__gnu_cxx::new_allocator.33" = type { i8 }

$_ZN3hls6streamIiLi0EEC2Ev = comdat any

$_ZN3hls6streamIiLi0EED2Ev = comdat any

$_ZN7ap_axisILi32ELi2ELi5ELi6EEC2Ev = comdat any

$_ZN3hls6streamI7ap_axisILi32ELi2ELi5ELi6EELi0EE4readEv = comdat any

$_ZN7ap_axisILi32ELi2ELi5ELi6EEaSEOS0_ = comdat any

$_ZN7ap_axisILi32ELi2ELi5ELi6EED2Ev = comdat any

$_ZNK11ap_int_baseILi32ELb1EE6to_intEv = comdat any

$_ZN6ap_intILi32EEC2Ei = comdat any

$_ZN6ap_intILi32EEaSERKS0_ = comdat any

$_ZN6ap_intILi32EED2Ev = comdat any

$_ZN3hls6streamIiLi0EE5writeERKi = comdat any

$_ZNK11ap_int_baseILi32ELb1EEcvxEv = comdat any

$_ZN7ap_uintILi4EEC2Ei = comdat any

$_ZN7ap_uintILi4EEaSERKS0_ = comdat any

$_ZN7ap_uintILi4EED2Ev = comdat any

$_ZN7ap_uintILi2EEC2Ei = comdat any

$_ZN7ap_uintILi2EEaSERKS0_ = comdat any

$_ZN7ap_uintILi2EED2Ev = comdat any

$_ZN7ap_uintILi1EEC2Ei = comdat any

$_ZN7ap_uintILi1EEaSERKS0_ = comdat any

$_ZN7ap_uintILi1EED2Ev = comdat any

$_ZN7ap_uintILi5EEC2Ei = comdat any

$_ZN7ap_uintILi5EEaSERKS0_ = comdat any

$_ZN7ap_uintILi5EED2Ev = comdat any

$_ZN7ap_uintILi6EEC2Ei = comdat any

$_ZN7ap_uintILi6EEaSERKS0_ = comdat any

$_ZN7ap_uintILi6EED2Ev = comdat any

$_ZN3hls6streamIiLi0EE4readEv = comdat any

$_ZN3hls6streamI7ap_axisILi32ELi2ELi5ELi6EELi0EE5writeERKS2_ = comdat any

$_ZN6ap_intILi32EEC2Ev = comdat any

$_ZN7ap_uintILi4EEC2Ev = comdat any

$_ZN7ap_uintILi2EEC2Ev = comdat any

$_ZN7ap_uintILi1EEC2Ev = comdat any

$_ZN7ap_uintILi5EEC2Ev = comdat any

$_ZN7ap_uintILi6EEC2Ev = comdat any

$_ZN11ap_int_baseILi32ELb1EEC2Ev = comdat any

$_ZN12ssdm_int_simILi32ELb1EEC2Ev = comdat any

$_ZN10ap_privateILi32ELb1ELb1EEC2Ev = comdat any

$_ZN10ap_privateILi32ELb1ELb1EE10set_canaryEv = comdat any

$_ZNV10ap_privateILi32ELb1ELb1EE15clearUnusedBitsEv = comdat any

$_ZN10ap_privateILi32ELb1ELb1EE12check_canaryEv = comdat any

$_ZN11ap_int_baseILi4ELb0EEC2Ev = comdat any

$_ZN12ssdm_int_simILi4ELb0EEC2Ev = comdat any

$_ZN10ap_privateILi4ELb0ELb1EEC2Ev = comdat any

$_ZN10ap_privateILi4ELb0ELb1EE10set_canaryEv = comdat any

$_ZNV10ap_privateILi4ELb0ELb1EE15clearUnusedBitsEv = comdat any

$_ZN10ap_privateILi4ELb0ELb1EE12check_canaryEv = comdat any

$_ZN11ap_int_baseILi2ELb0EEC2Ev = comdat any

$_ZN12ssdm_int_simILi2ELb0EEC2Ev = comdat any

$_ZN10ap_privateILi2ELb0ELb1EEC2Ev = comdat any

$_ZN10ap_privateILi2ELb0ELb1EE10set_canaryEv = comdat any

$_ZNV10ap_privateILi2ELb0ELb1EE15clearUnusedBitsEv = comdat any

$_ZN10ap_privateILi2ELb0ELb1EE12check_canaryEv = comdat any

$_ZN11ap_int_baseILi1ELb0EEC2Ev = comdat any

$_ZN12ssdm_int_simILi1ELb0EEC2Ev = comdat any

$_ZN10ap_privateILi1ELb0ELb1EEC2Ev = comdat any

$_ZN10ap_privateILi1ELb0ELb1EE10set_canaryEv = comdat any

$_ZNV10ap_privateILi1ELb0ELb1EE15clearUnusedBitsEv = comdat any

$_ZN10ap_privateILi1ELb0ELb1EE12check_canaryEv = comdat any

$_ZN11ap_int_baseILi5ELb0EEC2Ev = comdat any

$_ZN12ssdm_int_simILi5ELb0EEC2Ev = comdat any

$_ZN10ap_privateILi5ELb0ELb1EEC2Ev = comdat any

$_ZN10ap_privateILi5ELb0ELb1EE10set_canaryEv = comdat any

$_ZNV10ap_privateILi5ELb0ELb1EE15clearUnusedBitsEv = comdat any

$_ZN10ap_privateILi5ELb0ELb1EE12check_canaryEv = comdat any

$_ZN11ap_int_baseILi6ELb0EEC2Ev = comdat any

$_ZN12ssdm_int_simILi6ELb0EEC2Ev = comdat any

$_ZN10ap_privateILi6ELb0ELb1EEC2Ev = comdat any

$_ZN10ap_privateILi6ELb0ELb1EE10set_canaryEv = comdat any

$_ZNV10ap_privateILi6ELb0ELb1EE15clearUnusedBitsEv = comdat any

$_ZN10ap_privateILi6ELb0ELb1EE12check_canaryEv = comdat any

$_ZN11ap_int_baseILi32ELb1EED2Ev = comdat any

$_ZN12ssdm_int_simILi32ELb1EED2Ev = comdat any

$_ZN10ap_privateILi32ELb1ELb1EED2Ev = comdat any

$_ZN11ap_int_baseILi4ELb0EED2Ev = comdat any

$_ZN12ssdm_int_simILi4ELb0EED2Ev = comdat any

$_ZN10ap_privateILi4ELb0ELb1EED2Ev = comdat any

$_ZN11ap_int_baseILi2ELb0EED2Ev = comdat any

$_ZN12ssdm_int_simILi2ELb0EED2Ev = comdat any

$_ZN10ap_privateILi2ELb0ELb1EED2Ev = comdat any

$_ZN11ap_int_baseILi1ELb0EED2Ev = comdat any

$_ZN12ssdm_int_simILi1ELb0EED2Ev = comdat any

$_ZN10ap_privateILi1ELb0ELb1EED2Ev = comdat any

$_ZN11ap_int_baseILi5ELb0EED2Ev = comdat any

$_ZN12ssdm_int_simILi5ELb0EED2Ev = comdat any

$_ZN10ap_privateILi5ELb0ELb1EED2Ev = comdat any

$_ZN11ap_int_baseILi6ELb0EED2Ev = comdat any

$_ZN12ssdm_int_simILi6ELb0EED2Ev = comdat any

$_ZN10ap_privateILi6ELb0ELb1EED2Ev = comdat any

$_ZNSt5dequeIiSaIiEEC2Ev = comdat any

$_ZStorSt13_Ios_OpenmodeS_ = comdat any

$_ZNKSt9type_info4nameEv = comdat any

$_ZStplIcSt11char_traitsIcESaIcEENSt7__cxx1112basic_stringIT_T0_T1_EEPKS5_OS8_ = comdat any

$_ZN3hls6streamIiLi0EED0Ev = comdat any

$_ZNSt11_Deque_baseIiSaIiEEC2Ev = comdat any

$_ZNSt11_Deque_baseIiSaIiEE11_Deque_implC2Ev = comdat any

$_ZNSt11_Deque_baseIiSaIiEE17_M_initialize_mapEm = comdat any

$_ZNSaIiEC2Ev = comdat any

$_ZNSt15_Deque_iteratorIiRiPiEC2Ev = comdat any

$_ZN9__gnu_cxx13new_allocatorIiEC2Ev = comdat any

$_ZSt16__deque_buf_sizem = comdat any

$_ZSt3maxImERKT_S2_S2_ = comdat any

$_ZNSt11_Deque_baseIiSaIiEE15_M_allocate_mapEm = comdat any

$_ZNSt11_Deque_baseIiSaIiEE15_M_create_nodesEPPiS3_ = comdat any

$_ZNSt15_Deque_iteratorIiRiPiE11_M_set_nodeEPS1_ = comdat any

$_ZNKSt11_Deque_baseIiSaIiEE20_M_get_map_allocatorEv = comdat any

$_ZNSt16allocator_traitsISaIPiEE8allocateERS1_m = comdat any

$_ZNSaIPiED2Ev = comdat any

$_ZNKSt11_Deque_baseIiSaIiEE19_M_get_Tp_allocatorEv = comdat any

$_ZNSaIPiEC2IiEERKSaIT_E = comdat any

$_ZN9__gnu_cxx13new_allocatorIPiEC2Ev = comdat any

$_ZN9__gnu_cxx13new_allocatorIPiE8allocateEmPKv = comdat any

$_ZNK9__gnu_cxx13new_allocatorIPiE8max_sizeEv = comdat any

$_ZN9__gnu_cxx13new_allocatorIPiED2Ev = comdat any

$_ZNSt11_Deque_baseIiSaIiEE16_M_allocate_nodeEv = comdat any

$_ZNSt16allocator_traitsISaIiEE8allocateERS0_m = comdat any

$_ZN9__gnu_cxx13new_allocatorIiE8allocateEmPKv = comdat any

$_ZNK9__gnu_cxx13new_allocatorIiE8max_sizeEv = comdat any

$_ZNSt15_Deque_iteratorIiRiPiE14_S_buffer_sizeEv = comdat any

$_ZSt4moveIRNSt7__cxx1112basic_stringIcSt11char_traitsIcESaIcEEEEONSt16remove_referenceIT_E4typeEOS8_ = comdat any

$_ZNKSt5dequeIiSaIiEE5emptyEv = comdat any

$_ZNSt5dequeIiSaIiEED2Ev = comdat any

$_ZSteqIiRiPiEbRKSt15_Deque_iteratorIT_T0_T1_ES8_ = comdat any

$_ZNSt5dequeIiSaIiEE15_M_destroy_dataESt15_Deque_iteratorIiRiPiES5_RKS0_ = comdat any

$_ZNSt5dequeIiSaIiEE5beginEv = comdat any

$_ZNSt5dequeIiSaIiEE3endEv = comdat any

$_ZNSt11_Deque_baseIiSaIiEE19_M_get_Tp_allocatorEv = comdat any

$_ZNSt11_Deque_baseIiSaIiEED2Ev = comdat any

$_ZNSt15_Deque_iteratorIiRiPiEC2ERKS2_ = comdat any

$_ZNSt11_Deque_baseIiSaIiEE16_M_destroy_nodesEPPiS3_ = comdat any

$_ZNSt11_Deque_baseIiSaIiEE17_M_deallocate_mapEPPim = comdat any

$_ZNSt11_Deque_baseIiSaIiEE11_Deque_implD2Ev = comdat any

$_ZNSt11_Deque_baseIiSaIiEE18_M_deallocate_nodeEPi = comdat any

$_ZNSt16allocator_traitsISaIiEE10deallocateERS0_Pim = comdat any

$_ZN9__gnu_cxx13new_allocatorIiE10deallocateEPim = comdat any

$_ZNSt16allocator_traitsISaIPiEE10deallocateERS1_PS0_m = comdat any

$_ZN9__gnu_cxx13new_allocatorIPiE10deallocateEPS1_m = comdat any

$_ZNSaIiED2Ev = comdat any

$_ZN9__gnu_cxx13new_allocatorIiED2Ev = comdat any

$_ZNKSt5dequeI7ap_axisILi32ELi2ELi5ELi6EESaIS1_EE5emptyEv = comdat any

$_ZNSt5dequeI7ap_axisILi32ELi2ELi5ELi6EESaIS1_EE5frontEv = comdat any

$_ZN7ap_axisILi32ELi2ELi5ELi6EEaSERKS0_ = comdat any

$_ZNSt5dequeI7ap_axisILi32ELi2ELi5ELi6EESaIS1_EE9pop_frontEv = comdat any

$_ZSteqI7ap_axisILi32ELi2ELi5ELi6EERS1_PS1_EbRKSt15_Deque_iteratorIT_T0_T1_ESA_ = comdat any

$_ZNSt5dequeI7ap_axisILi32ELi2ELi5ELi6EESaIS1_EE5beginEv = comdat any

$_ZNKSt15_Deque_iteratorI7ap_axisILi32ELi2ELi5ELi6EERS1_PS1_EdeEv = comdat any

$_ZNSt15_Deque_iteratorI7ap_axisILi32ELi2ELi5ELi6EERS1_PS1_EC2ERKS4_ = comdat any

$_ZNSt16allocator_traitsISaI7ap_axisILi32ELi2ELi5ELi6EEEE7destroyIS1_EEvRS2_PT_ = comdat any

$_ZNSt5dequeI7ap_axisILi32ELi2ELi5ELi6EESaIS1_EE16_M_pop_front_auxEv = comdat any

$_ZN9__gnu_cxx13new_allocatorI7ap_axisILi32ELi2ELi5ELi6EEE7destroyIS2_EEvPT_ = comdat any

$_ZNSt11_Deque_baseI7ap_axisILi32ELi2ELi5ELi6EESaIS1_EE19_M_get_Tp_allocatorEv = comdat any

$_ZNSt11_Deque_baseI7ap_axisILi32ELi2ELi5ELi6EESaIS1_EE18_M_deallocate_nodeEPS1_ = comdat any

$_ZNSt15_Deque_iteratorI7ap_axisILi32ELi2ELi5ELi6EERS1_PS1_E11_M_set_nodeEPS3_ = comdat any

$_ZNSt16allocator_traitsISaI7ap_axisILi32ELi2ELi5ELi6EEEE10deallocateERS2_PS1_m = comdat any

$_ZN9__gnu_cxx13new_allocatorI7ap_axisILi32ELi2ELi5ELi6EEE10deallocateEPS2_m = comdat any

$_ZNSt15_Deque_iteratorI7ap_axisILi32ELi2ELi5ELi6EERS1_PS1_E14_S_buffer_sizeEv = comdat any

$_ZN10ap_privateILi32ELb1ELb1EEaSERKS0_ = comdat any

$_ZNK10ap_privateILi32ELb1ELb1EE7get_VALEv = comdat any

$_ZN10ap_privateILi4ELb0ELb1EEaSERKS0_ = comdat any

$_ZNK10ap_privateILi4ELb0ELb1EE7get_VALEv = comdat any

$_ZN10ap_privateILi2ELb0ELb1EEaSERKS0_ = comdat any

$_ZNK10ap_privateILi2ELb0ELb1EE7get_VALEv = comdat any

$_ZN10ap_privateILi1ELb0ELb1EEaSERKS0_ = comdat any

$_ZNK10ap_privateILi1ELb0ELb1EE7get_VALEv = comdat any

$_ZN10ap_privateILi5ELb0ELb1EEaSERKS0_ = comdat any

$_ZNK10ap_privateILi5ELb0ELb1EE7get_VALEv = comdat any

$_ZN10ap_privateILi6ELb0ELb1EEaSERKS0_ = comdat any

$_ZNK10ap_privateILi6ELb0ELb1EE7get_VALEv = comdat any

$_ZNK10ap_privateILi32ELb1ELb1EEcviEv = comdat any

$_ZNK10ap_privateILi32ELb1ELb1EE15get_cleared_VALEv = comdat any

$_ZN10ap_privateILi32ELb1ELb1EEaSEi = comdat any

$_ZNSt5dequeIiSaIiEE9push_backERKi = comdat any

$_ZNSt16allocator_traitsISaIiEE9constructIiJRKiEEEvRS0_PT_DpOT0_ = comdat any

$_ZNSt5dequeIiSaIiEE16_M_push_back_auxIJRKiEEEvDpOT_ = comdat any

$_ZN9__gnu_cxx13new_allocatorIiE9constructIiJRKiEEEvPT_DpOT0_ = comdat any

$_ZSt7forwardIRKiEOT_RNSt16remove_referenceIS2_E4typeE = comdat any

$_ZNSt5dequeIiSaIiEE22_M_reserve_map_at_backEm = comdat any

$_ZNSt5dequeIiSaIiEE17_M_reallocate_mapEmb = comdat any

$_ZSt4copyIPPiS1_ET0_T_S3_S2_ = comdat any

$_ZSt13copy_backwardIPPiS1_ET0_T_S3_S2_ = comdat any

$_ZSt14__copy_move_a2ILb0EPPiS1_ET1_T0_S3_S2_ = comdat any

$_ZSt12__miter_baseIPPiET_S2_ = comdat any

$_ZSt13__copy_move_aILb0EPPiS1_ET1_T0_S3_S2_ = comdat any

$_ZSt12__niter_baseIPPiET_S2_ = comdat any

$_ZNSt11__copy_moveILb0ELb1ESt26random_access_iterator_tagE8__copy_mIPiEEPT_PKS4_S7_S5_ = comdat any

$_ZSt23__copy_move_backward_a2ILb0EPPiS1_ET1_T0_S3_S2_ = comdat any

$_ZSt22__copy_move_backward_aILb0EPPiS1_ET1_T0_S3_S2_ = comdat any

$_ZNSt20__copy_move_backwardILb0ELb1ESt26random_access_iterator_tagE13__copy_move_bIPiEEPT_PKS4_S7_S5_ = comdat any

$_ZN10ap_privateILi4ELb0ELb1EEaSEi = comdat any

$_ZN10ap_privateILi2ELb0ELb1EEaSEi = comdat any

$_ZN10ap_privateILi1ELb0ELb1EEaSEi = comdat any

$_ZN10ap_privateILi5ELb0ELb1EEaSEi = comdat any

$_ZN10ap_privateILi6ELb0ELb1EEaSEi = comdat any

$_ZNSt5dequeIiSaIiEE5frontEv = comdat any

$_ZNSt5dequeIiSaIiEE9pop_frontEv = comdat any

$_ZNKSt15_Deque_iteratorIiRiPiEdeEv = comdat any

$_ZNSt16allocator_traitsISaIiEE7destroyIiEEvRS0_PT_ = comdat any

$_ZNSt5dequeIiSaIiEE16_M_pop_front_auxEv = comdat any

$_ZN9__gnu_cxx13new_allocatorIiE7destroyIiEEvPT_ = comdat any

$_ZNSt5dequeI7ap_axisILi32ELi2ELi5ELi6EESaIS1_EE9push_backERKS1_ = comdat any

$_ZNSt16allocator_traitsISaI7ap_axisILi32ELi2ELi5ELi6EEEE9constructIS1_JRKS1_EEEvRS2_PT_DpOT0_ = comdat any

$_ZNSt5dequeI7ap_axisILi32ELi2ELi5ELi6EESaIS1_EE16_M_push_back_auxIJRKS1_EEEvDpOT_ = comdat any

$_ZN9__gnu_cxx13new_allocatorI7ap_axisILi32ELi2ELi5ELi6EEE9constructIS2_JRKS2_EEEvPT_DpOT0_ = comdat any

$_ZSt7forwardIRK7ap_axisILi32ELi2ELi5ELi6EEEOT_RNSt16remove_referenceIS4_E4typeE = comdat any

$_ZNSt5dequeI7ap_axisILi32ELi2ELi5ELi6EESaIS1_EE22_M_reserve_map_at_backEm = comdat any

$_ZNSt11_Deque_baseI7ap_axisILi32ELi2ELi5ELi6EESaIS1_EE16_M_allocate_nodeEv = comdat any

$_ZNSt5dequeI7ap_axisILi32ELi2ELi5ELi6EESaIS1_EE17_M_reallocate_mapEmb = comdat any

$_ZSt4copyIPP7ap_axisILi32ELi2ELi5ELi6EES3_ET0_T_S5_S4_ = comdat any

$_ZSt13copy_backwardIPP7ap_axisILi32ELi2ELi5ELi6EES3_ET0_T_S5_S4_ = comdat any

$_ZNSt11_Deque_baseI7ap_axisILi32ELi2ELi5ELi6EESaIS1_EE15_M_allocate_mapEm = comdat any

$_ZNSt11_Deque_baseI7ap_axisILi32ELi2ELi5ELi6EESaIS1_EE17_M_deallocate_mapEPPS1_m = comdat any

$_ZSt14__copy_move_a2ILb0EPP7ap_axisILi32ELi2ELi5ELi6EES3_ET1_T0_S5_S4_ = comdat any

$_ZSt12__miter_baseIPP7ap_axisILi32ELi2ELi5ELi6EEET_S4_ = comdat any

$_ZSt13__copy_move_aILb0EPP7ap_axisILi32ELi2ELi5ELi6EES3_ET1_T0_S5_S4_ = comdat any

$_ZSt12__niter_baseIPP7ap_axisILi32ELi2ELi5ELi6EEET_S4_ = comdat any

$_ZNSt11__copy_moveILb0ELb1ESt26random_access_iterator_tagE8__copy_mIP7ap_axisILi32ELi2ELi5ELi6EEEEPT_PKS6_S9_S7_ = comdat any

$_ZSt23__copy_move_backward_a2ILb0EPP7ap_axisILi32ELi2ELi5ELi6EES3_ET1_T0_S5_S4_ = comdat any

$_ZSt22__copy_move_backward_aILb0EPP7ap_axisILi32ELi2ELi5ELi6EES3_ET1_T0_S5_S4_ = comdat any

$_ZNSt20__copy_move_backwardILb0ELb1ESt26random_access_iterator_tagE13__copy_move_bIP7ap_axisILi32ELi2ELi5ELi6EEEEPT_PKS6_S9_S7_ = comdat any

$_ZNKSt11_Deque_baseI7ap_axisILi32ELi2ELi5ELi6EESaIS1_EE20_M_get_map_allocatorEv = comdat any

$_ZNSt16allocator_traitsISaIP7ap_axisILi32ELi2ELi5ELi6EEEE8allocateERS3_m = comdat any

$_ZNSaIP7ap_axisILi32ELi2ELi5ELi6EEED2Ev = comdat any

$_ZNKSt11_Deque_baseI7ap_axisILi32ELi2ELi5ELi6EESaIS1_EE19_M_get_Tp_allocatorEv = comdat any

$_ZNSaIP7ap_axisILi32ELi2ELi5ELi6EEEC2IS0_EERKSaIT_E = comdat any

$_ZN9__gnu_cxx13new_allocatorIP7ap_axisILi32ELi2ELi5ELi6EEEC2Ev = comdat any

$_ZN9__gnu_cxx13new_allocatorIP7ap_axisILi32ELi2ELi5ELi6EEE8allocateEmPKv = comdat any

$_ZNK9__gnu_cxx13new_allocatorIP7ap_axisILi32ELi2ELi5ELi6EEE8max_sizeEv = comdat any

$_ZN9__gnu_cxx13new_allocatorIP7ap_axisILi32ELi2ELi5ELi6EEED2Ev = comdat any

$_ZNSt16allocator_traitsISaIP7ap_axisILi32ELi2ELi5ELi6EEEE10deallocateERS3_PS2_m = comdat any

$_ZN9__gnu_cxx13new_allocatorIP7ap_axisILi32ELi2ELi5ELi6EEE10deallocateEPS3_m = comdat any

$_ZNSt16allocator_traitsISaI7ap_axisILi32ELi2ELi5ELi6EEEE8allocateERS2_m = comdat any

$_ZN9__gnu_cxx13new_allocatorI7ap_axisILi32ELi2ELi5ELi6EEE8allocateEmPKv = comdat any

$_ZNK9__gnu_cxx13new_allocatorI7ap_axisILi32ELi2ELi5ELi6EEE8max_sizeEv = comdat any

$_ZTVN3hls6streamIiLi0EEE = comdat any

$_ZZN3hls6streamIiLi0EEC1EvE8_counter = comdat any

$_ZTSN3hls6streamIiLi0EEE = comdat any

$_ZTIN3hls6streamIiLi0EEE = comdat any

@_ZStL8__ioinit = internal global %"class.std::ios_base::Init" zeroinitializer, align 1, !dbg !0
@__dso_handle = external hidden global i8
@_ZTVN3hls6streamIiLi0EEE = linkonce_odr unnamed_addr constant { [4 x i8*] } { [4 x i8*] [i8* null, i8* bitcast ({ i8*, i8* }* @_ZTIN3hls6streamIiLi0EEE to i8*), i8* bitcast (void (%"class.hls::stream.22"*)* @_ZN3hls6streamIiLi0EED2Ev to i8*), i8* bitcast (void (%"class.hls::stream.22"*)* @_ZN3hls6streamIiLi0EED0Ev to i8*)] }, comdat, align 8
@_ZZN3hls6streamIiLi0EEC1EvE8_counter = linkonce_odr global i32 1, comdat, align 4, !dbg !19
@.str = private unnamed_addr constant [11 x i8] c"hls_stream\00", align 1
@.str.1 = private unnamed_addr constant [2 x i8] c".\00", align 1
@_ZTVN10__cxxabiv117__class_type_infoE = external global i8*
@_ZTSN3hls6streamIiLi0EEE = linkonce_odr constant [21 x i8] c"N3hls6streamIiLi0EEE\00", comdat
@_ZTIN3hls6streamIiLi0EEE = linkonce_odr constant { i8*, i8* } { i8* bitcast (i8** getelementptr inbounds (i8*, i8** @_ZTVN10__cxxabiv117__class_type_infoE, i64 2) to i8*), i8* getelementptr inbounds ([21 x i8], [21 x i8]* @_ZTSN3hls6streamIiLi0EEE, i32 0, i32 0) }, comdat
@_ZSt4cout = external global %"class.std::basic_ostream", align 8
@.str.2 = private unnamed_addr constant [23 x i8] c"WARNING: Hls::stream '\00", align 1
@.str.3 = private unnamed_addr constant [26 x i8] c"' contains leftover data,\00", align 1
@.str.4 = private unnamed_addr constant [45 x i8] c" which may result in RTL simulation hanging.\00", align 1
@.str.5 = private unnamed_addr constant [23 x i8] c"' is read while empty,\00", align 1
@llvm.global_ctors = appending global [1 x { i32, void ()*, i8* }] [{ i32, void ()*, i8* } { i32 65535, void ()* @_GLOBAL__sub_I_example.cpp, i8* null }]

; Function Attrs: noinline nounwind uwtable
define internal void @__cxx_global_var_init() #0 section ".text.startup" !dbg !8727 {
entry:
  call void @_ZNSt8ios_base4InitC1Ev(%"class.std::ios_base::Init"* @_ZStL8__ioinit), !dbg !8728
  %0 = call i32 @__cxa_atexit(void (i8*)* bitcast (void (%"class.std::ios_base::Init"*)* @_ZNSt8ios_base4InitD1Ev to void (i8*)*), i8* getelementptr inbounds (%"class.std::ios_base::Init", %"class.std::ios_base::Init"* @_ZStL8__ioinit, i32 0, i32 0), i8* @__dso_handle) #3, !dbg !8728
  ret void, !dbg !8728
}

declare void @_ZNSt8ios_base4InitC1Ev(%"class.std::ios_base::Init"*) unnamed_addr #1

; Function Attrs: nounwind
declare void @_ZNSt8ios_base4InitD1Ev(%"class.std::ios_base::Init"*) unnamed_addr #2

; Function Attrs: nounwind
declare i32 @__cxa_atexit(void (i8*)*, i8*, i8*) #3

; Function Attrs: noinline nounwind optnone uwtable
define void @_Z7exampleRN3hls6streamI7ap_axisILi32ELi2ELi5ELi6EELi0EEES4_(%"class.hls::stream"* dereferenceable(120) %A, %"class.hls::stream"* dereferenceable(120) %B) #4 !dbg !8729 !prof !8734 {
entry:
  %A.addr = alloca %"class.hls::stream"*, align 8
  %B.addr = alloca %"class.hls::stream"*, align 8
  %data_channel1 = alloca %"class.hls::stream.22", align 8
  %data_channel2 = alloca %"class.hls::stream.22", align 8
  store %"class.hls::stream"* %A, %"class.hls::stream"** %A.addr, align 8
  call void @llvm.dbg.declare(metadata %"class.hls::stream"** %A.addr, metadata !8735, metadata !DIExpression()), !dbg !8736
  store %"class.hls::stream"* %B, %"class.hls::stream"** %B.addr, align 8
  call void @llvm.dbg.declare(metadata %"class.hls::stream"** %B.addr, metadata !8737, metadata !DIExpression()), !dbg !8738
  call void @llvm.dbg.declare(metadata %"class.hls::stream.22"* %data_channel1, metadata !8739, metadata !DIExpression()), !dbg !8740
  call void @_ZN3hls6streamIiLi0EEC2Ev(%"class.hls::stream.22"* %data_channel1), !dbg !8740
  call void @llvm.dbg.declare(metadata %"class.hls::stream.22"* %data_channel2, metadata !8741, metadata !DIExpression()), !dbg !8742
  call void @_ZN3hls6streamIiLi0EEC2Ev(%"class.hls::stream.22"* %data_channel2), !dbg !8742
  %0 = load %"class.hls::stream"*, %"class.hls::stream"** %A.addr, align 8, !dbg !8743
  call void @_Z6proc_1RN3hls6streamI7ap_axisILi32ELi2ELi5ELi6EELi0EEERNS0_IiLi0EEES6_(%"class.hls::stream"* dereferenceable(120) %0, %"class.hls::stream.22"* dereferenceable(120) %data_channel1, %"class.hls::stream.22"* dereferenceable(120) %data_channel2), !dbg !8744
  %1 = load %"class.hls::stream"*, %"class.hls::stream"** %B.addr, align 8, !dbg !8745
  call void @_Z6proc_2RN3hls6streamI7ap_axisILi32ELi2ELi5ELi6EELi0EEERNS0_IiLi0EEES6_(%"class.hls::stream"* dereferenceable(120) %1, %"class.hls::stream.22"* dereferenceable(120) %data_channel1, %"class.hls::stream.22"* dereferenceable(120) %data_channel2), !dbg !8746
  call void @_ZN3hls6streamIiLi0EED2Ev(%"class.hls::stream.22"* %data_channel2) #3, !dbg !8747
  call void @_ZN3hls6streamIiLi0EED2Ev(%"class.hls::stream.22"* %data_channel1) #3, !dbg !8747
  ret void, !dbg !8747
}

; Function Attrs: nounwind readnone speculatable
declare void @llvm.dbg.declare(metadata, metadata, metadata) #5

; Function Attrs: noinline nounwind optnone uwtable
define linkonce_odr void @_ZN3hls6streamIiLi0EEC2Ev(%"class.hls::stream.22"* %this) unnamed_addr #4 comdat align 2 !dbg !21 !prof !8748 {
entry:
  %this.addr = alloca %"class.hls::stream.22"*, align 8
  %ss = alloca %"class.std::__cxx11::basic_stringstream", align 8
  %_demangle_name = alloca i8*, align 8
  %ref.tmp = alloca %"class.std::__cxx11::basic_string", align 8
  %ref.tmp9 = alloca %"class.std::__cxx11::basic_string", align 8
  store %"class.hls::stream.22"* %this, %"class.hls::stream.22"** %this.addr, align 8
  call void @llvm.dbg.declare(metadata %"class.hls::stream.22"** %this.addr, metadata !8749, metadata !DIExpression()), !dbg !8751
  %this1 = load %"class.hls::stream.22"*, %"class.hls::stream.22"** %this.addr, align 8
  %0 = bitcast %"class.hls::stream.22"* %this1 to i32 (...)***, !dbg !8752
  store i32 (...)** bitcast (i8** getelementptr inbounds ({ [4 x i8*] }, { [4 x i8*] }* @_ZTVN3hls6streamIiLi0EEE, i32 0, inrange i32 0, i32 2) to i32 (...)**), i32 (...)*** %0, align 8, !dbg !8752
  %_name = getelementptr inbounds %"class.hls::stream.22", %"class.hls::stream.22"* %this1, i32 0, i32 1, !dbg !8753
  call void @_ZNSt7__cxx1112basic_stringIcSt11char_traitsIcESaIcEEC1Ev(%"class.std::__cxx11::basic_string"* %_name) #3, !dbg !8753
  %_data = getelementptr inbounds %"class.hls::stream.22", %"class.hls::stream.22"* %this1, i32 0, i32 2, !dbg !8753
  call void @_ZNSt5dequeIiSaIiEEC2Ev(%"class.std::deque.23"* %_data), !dbg !8753
  call void @llvm.dbg.declare(metadata %"class.std::__cxx11::basic_stringstream"* %ss, metadata !8754, metadata !DIExpression()), !dbg !8760
  %call = call i32 @_ZStorSt13_Ios_OpenmodeS_(i32 16, i32 8), !dbg !8760
  call void @_ZNSt7__cxx1118basic_stringstreamIcSt11char_traitsIcESaIcEEC1ESt13_Ios_Openmode(%"class.std::__cxx11::basic_stringstream"* %ss, i32 %call), !dbg !8760
  call void @llvm.dbg.declare(metadata i8** %_demangle_name, metadata !8761, metadata !DIExpression()), !dbg !8762
  %1 = icmp eq %"class.hls::stream.22"* %this1, null, !dbg !8763
  br i1 %1, label %typeid.bad_typeid, label %typeid.end, !dbg !8763

typeid.bad_typeid:                                ; preds = %entry
  call void @__cxa_bad_typeid() #10, !dbg !8763
  unreachable, !dbg !8763

typeid.end:                                       ; preds = %entry
  %2 = bitcast %"class.hls::stream.22"* %this1 to %"class.std::type_info"***, !dbg !8763
  %vtable = load %"class.std::type_info"**, %"class.std::type_info"*** %2, align 8, !dbg !8763
  %3 = getelementptr inbounds %"class.std::type_info"*, %"class.std::type_info"** %vtable, i64 -1, !dbg !8763
  %4 = load %"class.std::type_info"*, %"class.std::type_info"** %3, align 8, !dbg !8763
  %call2 = call i8* @_ZNKSt9type_info4nameEv(%"class.std::type_info"* %4) #3, !dbg !8764
  %call3 = call i8* @__cxa_demangle(i8* %call2, i8* null, i64* null, i32* null), !dbg !8765
  store i8* %call3, i8** %_demangle_name, align 8, !dbg !8762
  %5 = load i8*, i8** %_demangle_name, align 8, !dbg !8766
  %tobool = icmp ne i8* %5, null, !dbg !8766
  br i1 %tobool, label %if.then, label %if.else, !dbg !8768, !prof !8769

if.then:                                          ; preds = %typeid.end
  %6 = load i8*, i8** %_demangle_name, align 8, !dbg !8770
  %_name4 = getelementptr inbounds %"class.hls::stream.22", %"class.hls::stream.22"* %this1, i32 0, i32 1, !dbg !8772
  %call5 = call dereferenceable(32) %"class.std::__cxx11::basic_string"* @_ZNSt7__cxx1112basic_stringIcSt11char_traitsIcESaIcEEaSEPKc(%"class.std::__cxx11::basic_string"* %_name4, i8* %6), !dbg !8773
  %7 = load i8*, i8** %_demangle_name, align 8, !dbg !8774
  call void @free(i8* %7) #3, !dbg !8775
  br label %if.end, !dbg !8776

if.else:                                          ; preds = %typeid.end
  %_name6 = getelementptr inbounds %"class.hls::stream.22", %"class.hls::stream.22"* %this1, i32 0, i32 1, !dbg !8777
  %call7 = call dereferenceable(32) %"class.std::__cxx11::basic_string"* @_ZNSt7__cxx1112basic_stringIcSt11char_traitsIcESaIcEEaSEPKc(%"class.std::__cxx11::basic_string"* %_name6, i8* getelementptr inbounds ([11 x i8], [11 x i8]* @.str, i32 0, i32 0)), !dbg !8779
  br label %if.end

if.end:                                           ; preds = %if.else, %if.then
  %8 = bitcast %"class.std::__cxx11::basic_stringstream"* %ss to i8*, !dbg !8780
  %add.ptr = getelementptr inbounds i8, i8* %8, i64 16, !dbg !8780
  %9 = bitcast i8* %add.ptr to %"class.std::basic_ostream"*, !dbg !8780
  %10 = load i32, i32* @_ZZN3hls6streamIiLi0EEC1EvE8_counter, align 4, !dbg !8781
  %inc = add i32 %10, 1, !dbg !8781
  store i32 %inc, i32* @_ZZN3hls6streamIiLi0EEC1EvE8_counter, align 4, !dbg !8781
  %call8 = call dereferenceable(272) %"class.std::basic_ostream"* @_ZNSolsEj(%"class.std::basic_ostream"* %9, i32 %10), !dbg !8782
  call void @_ZNKSt7__cxx1118basic_stringstreamIcSt11char_traitsIcESaIcEE3strEv(%"class.std::__cxx11::basic_string"* sret %ref.tmp9, %"class.std::__cxx11::basic_stringstream"* %ss), !dbg !8783
  call void @_ZStplIcSt11char_traitsIcESaIcEENSt7__cxx1112basic_stringIT_T0_T1_EEPKS5_OS8_(%"class.std::__cxx11::basic_string"* sret %ref.tmp, i8* getelementptr inbounds ([2 x i8], [2 x i8]* @.str.1, i32 0, i32 0), %"class.std::__cxx11::basic_string"* dereferenceable(32) %ref.tmp9), !dbg !8784
  %_name10 = getelementptr inbounds %"class.hls::stream.22", %"class.hls::stream.22"* %this1, i32 0, i32 1, !dbg !8785
  %call11 = call dereferenceable(32) %"class.std::__cxx11::basic_string"* @_ZNSt7__cxx1112basic_stringIcSt11char_traitsIcESaIcEEpLERKS4_(%"class.std::__cxx11::basic_string"* %_name10, %"class.std::__cxx11::basic_string"* dereferenceable(32) %ref.tmp), !dbg !8786
  call void @_ZNSt7__cxx1112basic_stringIcSt11char_traitsIcESaIcEED1Ev(%"class.std::__cxx11::basic_string"* %ref.tmp) #3, !dbg !8785
  call void @_ZNSt7__cxx1112basic_stringIcSt11char_traitsIcESaIcEED1Ev(%"class.std::__cxx11::basic_string"* %ref.tmp9) #3, !dbg !8785
  call void @_ZNSt7__cxx1118basic_stringstreamIcSt11char_traitsIcESaIcEED1Ev(%"class.std::__cxx11::basic_stringstream"* %ss) #3, !dbg !8787
  ret void, !dbg !8787
}

; Function Attrs: noinline nounwind optnone uwtable
define void @_Z6proc_1RN3hls6streamI7ap_axisILi32ELi2ELi5ELi6EELi0EEERNS0_IiLi0EEES6_(%"class.hls::stream"* dereferenceable(120) %A, %"class.hls::stream.22"* dereferenceable(120) %data_channel1, %"class.hls::stream.22"* dereferenceable(120) %data_channel2) #4 !dbg !8788 !prof !8734 {
entry:
  %A.addr = alloca %"class.hls::stream"*, align 8
  %data_channel1.addr = alloca %"class.hls::stream.22"*, align 8
  %data_channel2.addr = alloca %"class.hls::stream.22"*, align 8
  %i = alloca i32, align 4
  %j = alloca i32, align 4
  %k = alloca i32, align 4
  %tmp = alloca %struct.ap_axis, align 4
  %ref.tmp = alloca %struct.ap_axis, align 4
  %ref.tmp2 = alloca %struct.ap_int, align 4
  %ref.tmp6 = alloca i32, align 4
  %ref.tmp12 = alloca %struct.ap_int, align 4
  %ref.tmp17 = alloca i32, align 4
  %ref.tmp28 = alloca %struct.ap_axis, align 4
  %ref.tmp30 = alloca %struct.ap_int, align 4
  %ref.tmp35 = alloca i32, align 4
  %ref.tmp45 = alloca %struct.ap_int, align 4
  %ref.tmp51 = alloca i32, align 4
  store %"class.hls::stream"* %A, %"class.hls::stream"** %A.addr, align 8
  call void @llvm.dbg.declare(metadata %"class.hls::stream"** %A.addr, metadata !8791, metadata !DIExpression()), !dbg !8792
  store %"class.hls::stream.22"* %data_channel1, %"class.hls::stream.22"** %data_channel1.addr, align 8
  call void @llvm.dbg.declare(metadata %"class.hls::stream.22"** %data_channel1.addr, metadata !8793, metadata !DIExpression()), !dbg !8794
  store %"class.hls::stream.22"* %data_channel2, %"class.hls::stream.22"** %data_channel2.addr, align 8
  call void @llvm.dbg.declare(metadata %"class.hls::stream.22"** %data_channel2.addr, metadata !8795, metadata !DIExpression()), !dbg !8796
  call void @llvm.dbg.declare(metadata i32* %i, metadata !8797, metadata !DIExpression()), !dbg !8798
  call void @llvm.dbg.declare(metadata i32* %j, metadata !8799, metadata !DIExpression()), !dbg !8800
  call void @llvm.dbg.declare(metadata i32* %k, metadata !8801, metadata !DIExpression()), !dbg !8802
  call void @llvm.dbg.declare(metadata %struct.ap_axis* %tmp, metadata !8803, metadata !DIExpression()), !dbg !8806
  call void @_ZN7ap_axisILi32ELi2ELi5ELi6EEC2Ev(%struct.ap_axis* %tmp), !dbg !8806
  store i32 0, i32* %j, align 4, !dbg !8807
  %0 = load i32, i32* %j, align 4, !dbg !8808
  %cmp = icmp slt i32 %0, 5, !dbg !8810
  br i1 %cmp, label %if.then, label %if.else, !dbg !8811, !prof !8812

if.then:                                          ; preds = %entry
  store i32 0, i32* %i, align 4, !dbg !8813
  br label %for.cond, !dbg !8816

for.cond:                                         ; preds = %for.inc, %if.then
  %1 = load i32, i32* %i, align 4, !dbg !8817
  %cmp1 = icmp slt i32 %1, 10, !dbg !8819
  br i1 %cmp1, label %for.body, label %for.end, !dbg !8820, !prof !8821

for.body:                                         ; preds = %for.cond
  %2 = load %"class.hls::stream"*, %"class.hls::stream"** %A.addr, align 8, !dbg !8822
  call void @_ZN3hls6streamI7ap_axisILi32ELi2ELi5ELi6EELi0EE4readEv(%struct.ap_axis* sret %ref.tmp, %"class.hls::stream"* %2), !dbg !8824
  %call = call dereferenceable(12) %struct.ap_axis* @_ZN7ap_axisILi32ELi2ELi5ELi6EEaSEOS0_(%struct.ap_axis* %tmp, %struct.ap_axis* dereferenceable(12) %ref.tmp), !dbg !8825
  call void @_ZN7ap_axisILi32ELi2ELi5ELi6EED2Ev(%struct.ap_axis* %ref.tmp) #3, !dbg !8826
  %data = getelementptr inbounds %struct.ap_axis, %struct.ap_axis* %tmp, i32 0, i32 0, !dbg !8827
  %3 = bitcast %struct.ap_int* %data to %struct.ap_int_base*, !dbg !8828
  %call3 = call i32 @_ZNK11ap_int_baseILi32ELb1EE6to_intEv(%struct.ap_int_base* %3), !dbg !8829
  call void @_ZN6ap_intILi32EEC2Ei(%struct.ap_int* %ref.tmp2, i32 %call3), !dbg !8828
  %data4 = getelementptr inbounds %struct.ap_axis, %struct.ap_axis* %tmp, i32 0, i32 0, !dbg !8830
  %call5 = call dereferenceable(4) %struct.ap_int* @_ZN6ap_intILi32EEaSERKS0_(%struct.ap_int* %data4, %struct.ap_int* dereferenceable(4) %ref.tmp2), !dbg !8831
  call void @_ZN6ap_intILi32EED2Ev(%struct.ap_int* %ref.tmp2) #3, !dbg !8832
  %4 = load %"class.hls::stream.22"*, %"class.hls::stream.22"** %data_channel1.addr, align 8, !dbg !8833
  %data7 = getelementptr inbounds %struct.ap_axis, %struct.ap_axis* %tmp, i32 0, i32 0, !dbg !8834
  %5 = bitcast %struct.ap_int* %data7 to %struct.ap_int_base*, !dbg !8835
  %call8 = call i64 @_ZNK11ap_int_baseILi32ELb1EEcvxEv(%struct.ap_int_base* %5), !dbg !8835
  %conv = trunc i64 %call8 to i32, !dbg !8835
  store i32 %conv, i32* %ref.tmp6, align 4, !dbg !8835
  call void @_ZN3hls6streamIiLi0EE5writeERKi(%"class.hls::stream.22"* %4, i32* dereferenceable(4) %ref.tmp6), !dbg !8836
  br label %for.inc, !dbg !8837

for.inc:                                          ; preds = %for.body
  %6 = load i32, i32* %i, align 4, !dbg !8838
  %inc = add nsw i32 %6, 1, !dbg !8838
  store i32 %inc, i32* %i, align 4, !dbg !8838
  br label %for.cond, !dbg !8839, !llvm.loop !8840

for.end:                                          ; preds = %for.cond
  store i32 0, i32* %i, align 4, !dbg !8842
  br label %for.cond9, !dbg !8844

for.cond9:                                        ; preds = %for.inc21, %for.end
  %7 = load i32, i32* %i, align 4, !dbg !8845
  %cmp10 = icmp slt i32 %7, 10, !dbg !8847
  br i1 %cmp10, label %for.body11, label %for.end23, !dbg !8848, !prof !8821

for.body11:                                       ; preds = %for.cond9
  %data13 = getelementptr inbounds %struct.ap_axis, %struct.ap_axis* %tmp, i32 0, i32 0, !dbg !8849
  %8 = bitcast %struct.ap_int* %data13 to %struct.ap_int_base*, !dbg !8851
  %call14 = call i32 @_ZNK11ap_int_baseILi32ELb1EE6to_intEv(%struct.ap_int_base* %8), !dbg !8852
  call void @_ZN6ap_intILi32EEC2Ei(%struct.ap_int* %ref.tmp12, i32 %call14), !dbg !8851
  %data15 = getelementptr inbounds %struct.ap_axis, %struct.ap_axis* %tmp, i32 0, i32 0, !dbg !8853
  %call16 = call dereferenceable(4) %struct.ap_int* @_ZN6ap_intILi32EEaSERKS0_(%struct.ap_int* %data15, %struct.ap_int* dereferenceable(4) %ref.tmp12), !dbg !8854
  call void @_ZN6ap_intILi32EED2Ev(%struct.ap_int* %ref.tmp12) #3, !dbg !8855
  %9 = load %"class.hls::stream.22"*, %"class.hls::stream.22"** %data_channel2.addr, align 8, !dbg !8856
  %data18 = getelementptr inbounds %struct.ap_axis, %struct.ap_axis* %tmp, i32 0, i32 0, !dbg !8857
  %10 = bitcast %struct.ap_int* %data18 to %struct.ap_int_base*, !dbg !8858
  %call19 = call i64 @_ZNK11ap_int_baseILi32ELb1EEcvxEv(%struct.ap_int_base* %10), !dbg !8858
  %conv20 = trunc i64 %call19 to i32, !dbg !8858
  store i32 %conv20, i32* %ref.tmp17, align 4, !dbg !8858
  call void @_ZN3hls6streamIiLi0EE5writeERKi(%"class.hls::stream.22"* %9, i32* dereferenceable(4) %ref.tmp17), !dbg !8859
  br label %for.inc21, !dbg !8860

for.inc21:                                        ; preds = %for.body11
  %11 = load i32, i32* %i, align 4, !dbg !8861
  %inc22 = add nsw i32 %11, 1, !dbg !8861
  store i32 %inc22, i32* %i, align 4, !dbg !8861
  br label %for.cond9, !dbg !8862, !llvm.loop !8863

for.end23:                                        ; preds = %for.cond9
  %call24 = call i32 @_Z5test1v(), !dbg !8865
  store i32 %call24, i32* %k, align 4, !dbg !8866
  br label %if.end, !dbg !8867

if.else:                                          ; preds = %entry
  store i32 0, i32* %i, align 4, !dbg !8868
  br label %for.cond25, !dbg !8871

for.cond25:                                       ; preds = %for.inc39, %if.else
  %12 = load i32, i32* %i, align 4, !dbg !8872
  %cmp26 = icmp slt i32 %12, 10, !dbg !8874
  br i1 %cmp26, label %for.body27, label %for.end41, !dbg !8875

for.body27:                                       ; preds = %for.cond25
  %13 = load %"class.hls::stream"*, %"class.hls::stream"** %A.addr, align 8, !dbg !8876
  call void @_ZN3hls6streamI7ap_axisILi32ELi2ELi5ELi6EELi0EE4readEv(%struct.ap_axis* sret %ref.tmp28, %"class.hls::stream"* %13), !dbg !8878
  %call29 = call dereferenceable(12) %struct.ap_axis* @_ZN7ap_axisILi32ELi2ELi5ELi6EEaSEOS0_(%struct.ap_axis* %tmp, %struct.ap_axis* dereferenceable(12) %ref.tmp28), !dbg !8879
  call void @_ZN7ap_axisILi32ELi2ELi5ELi6EED2Ev(%struct.ap_axis* %ref.tmp28) #3, !dbg !8880
  %data31 = getelementptr inbounds %struct.ap_axis, %struct.ap_axis* %tmp, i32 0, i32 0, !dbg !8881
  %14 = bitcast %struct.ap_int* %data31 to %struct.ap_int_base*, !dbg !8882
  %call32 = call i32 @_ZNK11ap_int_baseILi32ELb1EE6to_intEv(%struct.ap_int_base* %14), !dbg !8883
  %add = add nsw i32 %call32, 1, !dbg !8884
  call void @_ZN6ap_intILi32EEC2Ei(%struct.ap_int* %ref.tmp30, i32 %add), !dbg !8882
  %data33 = getelementptr inbounds %struct.ap_axis, %struct.ap_axis* %tmp, i32 0, i32 0, !dbg !8885
  %call34 = call dereferenceable(4) %struct.ap_int* @_ZN6ap_intILi32EEaSERKS0_(%struct.ap_int* %data33, %struct.ap_int* dereferenceable(4) %ref.tmp30), !dbg !8886
  call void @_ZN6ap_intILi32EED2Ev(%struct.ap_int* %ref.tmp30) #3, !dbg !8887
  %15 = load %"class.hls::stream.22"*, %"class.hls::stream.22"** %data_channel1.addr, align 8, !dbg !8888
  %data36 = getelementptr inbounds %struct.ap_axis, %struct.ap_axis* %tmp, i32 0, i32 0, !dbg !8889
  %16 = bitcast %struct.ap_int* %data36 to %struct.ap_int_base*, !dbg !8890
  %call37 = call i64 @_ZNK11ap_int_baseILi32ELb1EEcvxEv(%struct.ap_int_base* %16), !dbg !8890
  %conv38 = trunc i64 %call37 to i32, !dbg !8890
  store i32 %conv38, i32* %ref.tmp35, align 4, !dbg !8890
  call void @_ZN3hls6streamIiLi0EE5writeERKi(%"class.hls::stream.22"* %15, i32* dereferenceable(4) %ref.tmp35), !dbg !8891
  br label %for.inc39, !dbg !8892

for.inc39:                                        ; preds = %for.body27
  %17 = load i32, i32* %i, align 4, !dbg !8893
  %inc40 = add nsw i32 %17, 1, !dbg !8893
  store i32 %inc40, i32* %i, align 4, !dbg !8893
  br label %for.cond25, !dbg !8894, !llvm.loop !8895

for.end41:                                        ; preds = %for.cond25
  store i32 0, i32* %i, align 4, !dbg !8897
  br label %for.cond42, !dbg !8899

for.cond42:                                       ; preds = %for.inc55, %for.end41
  %18 = load i32, i32* %i, align 4, !dbg !8900
  %cmp43 = icmp slt i32 %18, 10, !dbg !8902
  br i1 %cmp43, label %for.body44, label %for.end57, !dbg !8903

for.body44:                                       ; preds = %for.cond42
  %data46 = getelementptr inbounds %struct.ap_axis, %struct.ap_axis* %tmp, i32 0, i32 0, !dbg !8904
  %19 = bitcast %struct.ap_int* %data46 to %struct.ap_int_base*, !dbg !8906
  %call47 = call i32 @_ZNK11ap_int_baseILi32ELb1EE6to_intEv(%struct.ap_int_base* %19), !dbg !8907
  %add48 = add nsw i32 %call47, 1, !dbg !8908
  call void @_ZN6ap_intILi32EEC2Ei(%struct.ap_int* %ref.tmp45, i32 %add48), !dbg !8906
  %data49 = getelementptr inbounds %struct.ap_axis, %struct.ap_axis* %tmp, i32 0, i32 0, !dbg !8909
  %call50 = call dereferenceable(4) %struct.ap_int* @_ZN6ap_intILi32EEaSERKS0_(%struct.ap_int* %data49, %struct.ap_int* dereferenceable(4) %ref.tmp45), !dbg !8910
  call void @_ZN6ap_intILi32EED2Ev(%struct.ap_int* %ref.tmp45) #3, !dbg !8911
  %20 = load %"class.hls::stream.22"*, %"class.hls::stream.22"** %data_channel2.addr, align 8, !dbg !8912
  %data52 = getelementptr inbounds %struct.ap_axis, %struct.ap_axis* %tmp, i32 0, i32 0, !dbg !8913
  %21 = bitcast %struct.ap_int* %data52 to %struct.ap_int_base*, !dbg !8914
  %call53 = call i64 @_ZNK11ap_int_baseILi32ELb1EEcvxEv(%struct.ap_int_base* %21), !dbg !8914
  %conv54 = trunc i64 %call53 to i32, !dbg !8914
  store i32 %conv54, i32* %ref.tmp51, align 4, !dbg !8914
  call void @_ZN3hls6streamIiLi0EE5writeERKi(%"class.hls::stream.22"* %20, i32* dereferenceable(4) %ref.tmp51), !dbg !8915
  br label %for.inc55, !dbg !8916

for.inc55:                                        ; preds = %for.body44
  %22 = load i32, i32* %i, align 4, !dbg !8917
  %inc56 = add nsw i32 %22, 1, !dbg !8917
  store i32 %inc56, i32* %i, align 4, !dbg !8917
  br label %for.cond42, !dbg !8918, !llvm.loop !8919

for.end57:                                        ; preds = %for.cond42
  %call58 = call i32 @_Z5test2v(), !dbg !8921
  store i32 %call58, i32* %k, align 4, !dbg !8922
  br label %if.end

if.end:                                           ; preds = %for.end57, %for.end23
  call void @_ZN7ap_axisILi32ELi2ELi5ELi6EED2Ev(%struct.ap_axis* %tmp) #3, !dbg !8923
  ret void, !dbg !8923
}

; Function Attrs: noinline nounwind optnone uwtable
define void @_Z6proc_2RN3hls6streamI7ap_axisILi32ELi2ELi5ELi6EELi0EEERNS0_IiLi0EEES6_(%"class.hls::stream"* dereferenceable(120) %B, %"class.hls::stream.22"* dereferenceable(120) %data_channel1, %"class.hls::stream.22"* dereferenceable(120) %data_channel2) #4 !dbg !8924 !prof !8734 {
entry:
  %B.addr = alloca %"class.hls::stream"*, align 8
  %data_channel1.addr = alloca %"class.hls::stream.22"*, align 8
  %data_channel2.addr = alloca %"class.hls::stream.22"*, align 8
  %i = alloca i32, align 4
  %tmp = alloca %struct.ap_axis, align 4
  %ref.tmp = alloca %struct.ap_int, align 4
  %ref.tmp1 = alloca %struct.ap_uint, align 1
  %ref.tmp3 = alloca %struct.ap_uint, align 1
  %ref.tmp5 = alloca %struct.ap_uint.6, align 1
  %ref.tmp7 = alloca %struct.ap_uint.10, align 1
  %ref.tmp9 = alloca %struct.ap_uint.14, align 1
  %ref.tmp11 = alloca %struct.ap_uint.18, align 1
  %ref.tmp14 = alloca %struct.ap_int, align 4
  %ref.tmp19 = alloca %struct.ap_int, align 4
  store %"class.hls::stream"* %B, %"class.hls::stream"** %B.addr, align 8
  call void @llvm.dbg.declare(metadata %"class.hls::stream"** %B.addr, metadata !8925, metadata !DIExpression()), !dbg !8926
  store %"class.hls::stream.22"* %data_channel1, %"class.hls::stream.22"** %data_channel1.addr, align 8
  call void @llvm.dbg.declare(metadata %"class.hls::stream.22"** %data_channel1.addr, metadata !8927, metadata !DIExpression()), !dbg !8928
  store %"class.hls::stream.22"* %data_channel2, %"class.hls::stream.22"** %data_channel2.addr, align 8
  call void @llvm.dbg.declare(metadata %"class.hls::stream.22"** %data_channel2.addr, metadata !8929, metadata !DIExpression()), !dbg !8930
  call void @llvm.dbg.declare(metadata i32* %i, metadata !8931, metadata !DIExpression()), !dbg !8932
  call void @llvm.dbg.declare(metadata %struct.ap_axis* %tmp, metadata !8933, metadata !DIExpression()), !dbg !8934
  call void @_ZN7ap_axisILi32ELi2ELi5ELi6EEC2Ev(%struct.ap_axis* %tmp), !dbg !8934
  call void @_ZN6ap_intILi32EEC2Ei(%struct.ap_int* %ref.tmp, i32 0), !dbg !8935
  %data = getelementptr inbounds %struct.ap_axis, %struct.ap_axis* %tmp, i32 0, i32 0, !dbg !8936
  %call = call dereferenceable(4) %struct.ap_int* @_ZN6ap_intILi32EEaSERKS0_(%struct.ap_int* %data, %struct.ap_int* dereferenceable(4) %ref.tmp), !dbg !8937
  call void @_ZN6ap_intILi32EED2Ev(%struct.ap_int* %ref.tmp) #3, !dbg !8938
  call void @_ZN7ap_uintILi4EEC2Ei(%struct.ap_uint* %ref.tmp1, i32 1), !dbg !8939
  %keep = getelementptr inbounds %struct.ap_axis, %struct.ap_axis* %tmp, i32 0, i32 1, !dbg !8940
  %call2 = call dereferenceable(1) %struct.ap_uint* @_ZN7ap_uintILi4EEaSERKS0_(%struct.ap_uint* %keep, %struct.ap_uint* dereferenceable(1) %ref.tmp1), !dbg !8941
  call void @_ZN7ap_uintILi4EED2Ev(%struct.ap_uint* %ref.tmp1) #3, !dbg !8942
  call void @_ZN7ap_uintILi4EEC2Ei(%struct.ap_uint* %ref.tmp3, i32 1), !dbg !8943
  %strb = getelementptr inbounds %struct.ap_axis, %struct.ap_axis* %tmp, i32 0, i32 2, !dbg !8944
  %call4 = call dereferenceable(1) %struct.ap_uint* @_ZN7ap_uintILi4EEaSERKS0_(%struct.ap_uint* %strb, %struct.ap_uint* dereferenceable(1) %ref.tmp3), !dbg !8945
  call void @_ZN7ap_uintILi4EED2Ev(%struct.ap_uint* %ref.tmp3) #3, !dbg !8946
  call void @_ZN7ap_uintILi2EEC2Ei(%struct.ap_uint.6* %ref.tmp5, i32 1), !dbg !8947
  %user = getelementptr inbounds %struct.ap_axis, %struct.ap_axis* %tmp, i32 0, i32 3, !dbg !8948
  %call6 = call dereferenceable(1) %struct.ap_uint.6* @_ZN7ap_uintILi2EEaSERKS0_(%struct.ap_uint.6* %user, %struct.ap_uint.6* dereferenceable(1) %ref.tmp5), !dbg !8949
  call void @_ZN7ap_uintILi2EED2Ev(%struct.ap_uint.6* %ref.tmp5) #3, !dbg !8950
  call void @_ZN7ap_uintILi1EEC2Ei(%struct.ap_uint.10* %ref.tmp7, i32 0), !dbg !8951
  %last = getelementptr inbounds %struct.ap_axis, %struct.ap_axis* %tmp, i32 0, i32 4, !dbg !8952
  %call8 = call dereferenceable(1) %struct.ap_uint.10* @_ZN7ap_uintILi1EEaSERKS0_(%struct.ap_uint.10* %last, %struct.ap_uint.10* dereferenceable(1) %ref.tmp7), !dbg !8953
  call void @_ZN7ap_uintILi1EED2Ev(%struct.ap_uint.10* %ref.tmp7) #3, !dbg !8954
  call void @_ZN7ap_uintILi5EEC2Ei(%struct.ap_uint.14* %ref.tmp9, i32 0), !dbg !8955
  %id = getelementptr inbounds %struct.ap_axis, %struct.ap_axis* %tmp, i32 0, i32 5, !dbg !8956
  %call10 = call dereferenceable(1) %struct.ap_uint.14* @_ZN7ap_uintILi5EEaSERKS0_(%struct.ap_uint.14* %id, %struct.ap_uint.14* dereferenceable(1) %ref.tmp9), !dbg !8957
  call void @_ZN7ap_uintILi5EED2Ev(%struct.ap_uint.14* %ref.tmp9) #3, !dbg !8958
  call void @_ZN7ap_uintILi6EEC2Ei(%struct.ap_uint.18* %ref.tmp11, i32 1), !dbg !8959
  %dest = getelementptr inbounds %struct.ap_axis, %struct.ap_axis* %tmp, i32 0, i32 6, !dbg !8960
  %call12 = call dereferenceable(1) %struct.ap_uint.18* @_ZN7ap_uintILi6EEaSERKS0_(%struct.ap_uint.18* %dest, %struct.ap_uint.18* dereferenceable(1) %ref.tmp11), !dbg !8961
  call void @_ZN7ap_uintILi6EED2Ev(%struct.ap_uint.18* %ref.tmp11) #3, !dbg !8962
  store i32 0, i32* %i, align 4, !dbg !8963
  br label %for.cond, !dbg !8965

for.cond:                                         ; preds = %for.inc, %entry
  %0 = load i32, i32* %i, align 4, !dbg !8966
  %cmp = icmp slt i32 %0, 10, !dbg !8968
  br i1 %cmp, label %for.body, label %for.end, !dbg !8969, !prof !8821

for.body:                                         ; preds = %for.cond
  %1 = load i32, i32* %i, align 4, !dbg !8970
  %cmp13 = icmp slt i32 %1, 5, !dbg !8973
  br i1 %cmp13, label %if.then, label %if.else, !dbg !8974, !prof !8975

if.then:                                          ; preds = %for.body
  %2 = load %"class.hls::stream.22"*, %"class.hls::stream.22"** %data_channel2.addr, align 8, !dbg !8976
  %call15 = call i32 @_ZN3hls6streamIiLi0EE4readEv(%"class.hls::stream.22"* %2), !dbg !8977
  %3 = load %"class.hls::stream.22"*, %"class.hls::stream.22"** %data_channel1.addr, align 8, !dbg !8978
  %call16 = call i32 @_ZN3hls6streamIiLi0EE4readEv(%"class.hls::stream.22"* %3), !dbg !8979
  %add = add nsw i32 %call15, %call16, !dbg !8980
  call void @_ZN6ap_intILi32EEC2Ei(%struct.ap_int* %ref.tmp14, i32 %add), !dbg !8976
  %data17 = getelementptr inbounds %struct.ap_axis, %struct.ap_axis* %tmp, i32 0, i32 0, !dbg !8981
  %call18 = call dereferenceable(4) %struct.ap_int* @_ZN6ap_intILi32EEaSERKS0_(%struct.ap_int* %data17, %struct.ap_int* dereferenceable(4) %ref.tmp14), !dbg !8982
  call void @_ZN6ap_intILi32EED2Ev(%struct.ap_int* %ref.tmp14) #3, !dbg !8983
  br label %if.end, !dbg !8983

if.else:                                          ; preds = %for.body
  %4 = load %"class.hls::stream.22"*, %"class.hls::stream.22"** %data_channel2.addr, align 8, !dbg !8984
  %call20 = call i32 @_ZN3hls6streamIiLi0EE4readEv(%"class.hls::stream.22"* %4), !dbg !8985
  %5 = load %"class.hls::stream.22"*, %"class.hls::stream.22"** %data_channel1.addr, align 8, !dbg !8986
  %call21 = call i32 @_ZN3hls6streamIiLi0EE4readEv(%"class.hls::stream.22"* %5), !dbg !8987
  %add22 = add nsw i32 %call20, %call21, !dbg !8988
  %add23 = add nsw i32 %add22, 1, !dbg !8989
  call void @_ZN6ap_intILi32EEC2Ei(%struct.ap_int* %ref.tmp19, i32 %add23), !dbg !8984
  %data24 = getelementptr inbounds %struct.ap_axis, %struct.ap_axis* %tmp, i32 0, i32 0, !dbg !8990
  %call25 = call dereferenceable(4) %struct.ap_int* @_ZN6ap_intILi32EEaSERKS0_(%struct.ap_int* %data24, %struct.ap_int* dereferenceable(4) %ref.tmp19), !dbg !8991
  call void @_ZN6ap_intILi32EED2Ev(%struct.ap_int* %ref.tmp19) #3, !dbg !8992
  br label %if.end

if.end:                                           ; preds = %if.else, %if.then
  %6 = load %"class.hls::stream"*, %"class.hls::stream"** %B.addr, align 8, !dbg !8993
  call void @_ZN3hls6streamI7ap_axisILi32ELi2ELi5ELi6EELi0EE5writeERKS2_(%"class.hls::stream"* %6, %struct.ap_axis* dereferenceable(12) %tmp), !dbg !8994
  br label %for.inc, !dbg !8995

for.inc:                                          ; preds = %if.end
  %7 = load i32, i32* %i, align 4, !dbg !8996
  %inc = add nsw i32 %7, 1, !dbg !8996
  store i32 %inc, i32* %i, align 4, !dbg !8996
  br label %for.cond, !dbg !8997, !llvm.loop !8998

for.end:                                          ; preds = %for.cond
  call void @_ZN7ap_axisILi32ELi2ELi5ELi6EED2Ev(%struct.ap_axis* %tmp) #3, !dbg !9000
  ret void, !dbg !9000
}

; Function Attrs: noinline nounwind optnone uwtable
define linkonce_odr void @_ZN3hls6streamIiLi0EED2Ev(%"class.hls::stream.22"* %this) unnamed_addr #4 comdat align 2 !dbg !9001 !prof !8748 {
entry:
  %this.addr = alloca %"class.hls::stream.22"*, align 8
  store %"class.hls::stream.22"* %this, %"class.hls::stream.22"** %this.addr, align 8
  call void @llvm.dbg.declare(metadata %"class.hls::stream.22"** %this.addr, metadata !9002, metadata !DIExpression()), !dbg !9003
  %this1 = load %"class.hls::stream.22"*, %"class.hls::stream.22"** %this.addr, align 8
  %0 = bitcast %"class.hls::stream.22"* %this1 to i32 (...)***, !dbg !9004
  store i32 (...)** bitcast (i8** getelementptr inbounds ({ [4 x i8*] }, { [4 x i8*] }* @_ZTVN3hls6streamIiLi0EEE, i32 0, inrange i32 0, i32 2) to i32 (...)**), i32 (...)*** %0, align 8, !dbg !9004
  %_data = getelementptr inbounds %"class.hls::stream.22", %"class.hls::stream.22"* %this1, i32 0, i32 2, !dbg !9005
  %call = call zeroext i1 @_ZNKSt5dequeIiSaIiEE5emptyEv(%"class.std::deque.23"* %_data) #3, !dbg !9008
  br i1 %call, label %if.end, label %if.then, !dbg !9009, !prof !8769

if.then:                                          ; preds = %entry
  %call2 = call dereferenceable(272) %"class.std::basic_ostream"* @_ZStlsISt11char_traitsIcEERSt13basic_ostreamIcT_ES5_PKc(%"class.std::basic_ostream"* dereferenceable(272) @_ZSt4cout, i8* getelementptr inbounds ([23 x i8], [23 x i8]* @.str.2, i32 0, i32 0)), !dbg !9010
  %_name = getelementptr inbounds %"class.hls::stream.22", %"class.hls::stream.22"* %this1, i32 0, i32 1, !dbg !9012
  %call3 = call dereferenceable(272) %"class.std::basic_ostream"* @_ZStlsIcSt11char_traitsIcESaIcEERSt13basic_ostreamIT_T0_ES7_RKNSt7__cxx1112basic_stringIS4_S5_T1_EE(%"class.std::basic_ostream"* dereferenceable(272) %call2, %"class.std::__cxx11::basic_string"* dereferenceable(32) %_name), !dbg !9013
  %call4 = call dereferenceable(272) %"class.std::basic_ostream"* @_ZStlsISt11char_traitsIcEERSt13basic_ostreamIcT_ES5_PKc(%"class.std::basic_ostream"* dereferenceable(272) %call3, i8* getelementptr inbounds ([26 x i8], [26 x i8]* @.str.3, i32 0, i32 0)), !dbg !9014
  %call5 = call dereferenceable(272) %"class.std::basic_ostream"* @_ZStlsISt11char_traitsIcEERSt13basic_ostreamIcT_ES5_PKc(%"class.std::basic_ostream"* dereferenceable(272) %call4, i8* getelementptr inbounds ([45 x i8], [45 x i8]* @.str.4, i32 0, i32 0)), !dbg !9015
  %call6 = call dereferenceable(272) %"class.std::basic_ostream"* @_ZNSolsEPFRSoS_E(%"class.std::basic_ostream"* %call5, %"class.std::basic_ostream"* (%"class.std::basic_ostream"*)* @_ZSt4endlIcSt11char_traitsIcEERSt13basic_ostreamIT_T0_ES6_), !dbg !9016
  br label %if.end, !dbg !9017

if.end:                                           ; preds = %if.then, %entry
  %_data7 = getelementptr inbounds %"class.hls::stream.22", %"class.hls::stream.22"* %this1, i32 0, i32 2, !dbg !9018
  call void @_ZNSt5dequeIiSaIiEED2Ev(%"class.std::deque.23"* %_data7) #3, !dbg !9018
  %_name8 = getelementptr inbounds %"class.hls::stream.22", %"class.hls::stream.22"* %this1, i32 0, i32 1, !dbg !9018
  call void @_ZNSt7__cxx1112basic_stringIcSt11char_traitsIcESaIcEED1Ev(%"class.std::__cxx11::basic_string"* %_name8) #3, !dbg !9018
  ret void, !dbg !9019
}

; Function Attrs: noinline nounwind optnone uwtable
define i32 @_Z5test1v() #4 !dbg !9020 !prof !8734 {
entry:
  ret i32 1, !dbg !9021
}

; Function Attrs: noinline nounwind optnone uwtable
define i32 @_Z5test2v() #4 !dbg !9022 !prof !9023 {
entry:
  ret i32 0, !dbg !9024
}

; Function Attrs: noinline nounwind optnone uwtable
define linkonce_odr void @_ZN7ap_axisILi32ELi2ELi5ELi6EEC2Ev(%struct.ap_axis* %this) unnamed_addr #4 comdat align 2 !dbg !9025 {
entry:
  %this.addr = alloca %struct.ap_axis*, align 8
  store %struct.ap_axis* %this, %struct.ap_axis** %this.addr, align 8
  call void @llvm.dbg.declare(metadata %struct.ap_axis** %this.addr, metadata !9030, metadata !DIExpression()), !dbg !9031
  %this1 = load %struct.ap_axis*, %struct.ap_axis** %this.addr, align 8
  %data = getelementptr inbounds %struct.ap_axis, %struct.ap_axis* %this1, i32 0, i32 0, !dbg !9032
  call void @_ZN6ap_intILi32EEC2Ev(%struct.ap_int* %data), !dbg !9032
  %keep = getelementptr inbounds %struct.ap_axis, %struct.ap_axis* %this1, i32 0, i32 1, !dbg !9032
  call void @_ZN7ap_uintILi4EEC2Ev(%struct.ap_uint* %keep), !dbg !9032
  %strb = getelementptr inbounds %struct.ap_axis, %struct.ap_axis* %this1, i32 0, i32 2, !dbg !9032
  call void @_ZN7ap_uintILi4EEC2Ev(%struct.ap_uint* %strb), !dbg !9032
  %user = getelementptr inbounds %struct.ap_axis, %struct.ap_axis* %this1, i32 0, i32 3, !dbg !9032
  call void @_ZN7ap_uintILi2EEC2Ev(%struct.ap_uint.6* %user), !dbg !9032
  %last = getelementptr inbounds %struct.ap_axis, %struct.ap_axis* %this1, i32 0, i32 4, !dbg !9032
  call void @_ZN7ap_uintILi1EEC2Ev(%struct.ap_uint.10* %last), !dbg !9032
  %id = getelementptr inbounds %struct.ap_axis, %struct.ap_axis* %this1, i32 0, i32 5, !dbg !9032
  call void @_ZN7ap_uintILi5EEC2Ev(%struct.ap_uint.14* %id), !dbg !9032
  %dest = getelementptr inbounds %struct.ap_axis, %struct.ap_axis* %this1, i32 0, i32 6, !dbg !9032
  call void @_ZN7ap_uintILi6EEC2Ev(%struct.ap_uint.18* %dest), !dbg !9032
  ret void, !dbg !9032
}

; Function Attrs: noinline nounwind optnone uwtable
define linkonce_odr void @_ZN3hls6streamI7ap_axisILi32ELi2ELi5ELi6EELi0EE4readEv(%struct.ap_axis* noalias sret %agg.result, %"class.hls::stream"* %this) #4 comdat align 2 !dbg !9033 !prof !9038 {
entry:
  %this.addr = alloca %"class.hls::stream"*, align 8
  %nrvo = alloca i1, align 1
  %ref.tmp = alloca %struct.ap_axis, align 4
  store %"class.hls::stream"* %this, %"class.hls::stream"** %this.addr, align 8
  call void @llvm.dbg.declare(metadata %"class.hls::stream"** %this.addr, metadata !9039, metadata !DIExpression()), !dbg !9041
  %this1 = load %"class.hls::stream"*, %"class.hls::stream"** %this.addr, align 8
  store i1 false, i1* %nrvo, align 1, !dbg !9042
  call void @llvm.dbg.declare(metadata %struct.ap_axis* %agg.result, metadata !9043, metadata !DIExpression()), !dbg !9044
  call void @_ZN7ap_axisILi32ELi2ELi5ELi6EEC2Ev(%struct.ap_axis* %agg.result), !dbg !9044
  %_data = getelementptr inbounds %"class.hls::stream", %"class.hls::stream"* %this1, i32 0, i32 2, !dbg !9045
  %call = call zeroext i1 @_ZNKSt5dequeI7ap_axisILi32ELi2ELi5ELi6EESaIS1_EE5emptyEv(%"class.std::deque"* %_data) #3, !dbg !9047
  br i1 %call, label %if.then, label %if.else, !dbg !9048, !prof !9049

if.then:                                          ; preds = %entry
  %call2 = call dereferenceable(272) %"class.std::basic_ostream"* @_ZStlsISt11char_traitsIcEERSt13basic_ostreamIcT_ES5_PKc(%"class.std::basic_ostream"* dereferenceable(272) @_ZSt4cout, i8* getelementptr inbounds ([23 x i8], [23 x i8]* @.str.2, i32 0, i32 0)), !dbg !9050
  %_name = getelementptr inbounds %"class.hls::stream", %"class.hls::stream"* %this1, i32 0, i32 1, !dbg !9052
  %call3 = call dereferenceable(272) %"class.std::basic_ostream"* @_ZStlsIcSt11char_traitsIcESaIcEERSt13basic_ostreamIT_T0_ES7_RKNSt7__cxx1112basic_stringIS4_S5_T1_EE(%"class.std::basic_ostream"* dereferenceable(272) %call2, %"class.std::__cxx11::basic_string"* dereferenceable(32) %_name), !dbg !9053
  %call4 = call dereferenceable(272) %"class.std::basic_ostream"* @_ZStlsISt11char_traitsIcEERSt13basic_ostreamIcT_ES5_PKc(%"class.std::basic_ostream"* dereferenceable(272) %call3, i8* getelementptr inbounds ([23 x i8], [23 x i8]* @.str.5, i32 0, i32 0)), !dbg !9054
  %call5 = call dereferenceable(272) %"class.std::basic_ostream"* @_ZStlsISt11char_traitsIcEERSt13basic_ostreamIcT_ES5_PKc(%"class.std::basic_ostream"* dereferenceable(272) %call4, i8* getelementptr inbounds ([45 x i8], [45 x i8]* @.str.4, i32 0, i32 0)), !dbg !9055
  %call6 = call dereferenceable(272) %"class.std::basic_ostream"* @_ZNSolsEPFRSoS_E(%"class.std::basic_ostream"* %call5, %"class.std::basic_ostream"* (%"class.std::basic_ostream"*)* @_ZSt4endlIcSt11char_traitsIcEERSt13basic_ostreamIT_T0_ES6_), !dbg !9056
  %0 = bitcast %struct.ap_axis* %ref.tmp to i8*, !dbg !9057
  call void @llvm.memset.p0i8.i64(i8* align 4 %0, i8 0, i64 12, i1 false), !dbg !9057
  call void @_ZN7ap_axisILi32ELi2ELi5ELi6EEC2Ev(%struct.ap_axis* %ref.tmp), !dbg !9057
  %call7 = call dereferenceable(12) %struct.ap_axis* @_ZN7ap_axisILi32ELi2ELi5ELi6EEaSEOS0_(%struct.ap_axis* %agg.result, %struct.ap_axis* dereferenceable(12) %ref.tmp), !dbg !9058
  call void @_ZN7ap_axisILi32ELi2ELi5ELi6EED2Ev(%struct.ap_axis* %ref.tmp) #3, !dbg !9059
  br label %if.end, !dbg !9060

if.else:                                          ; preds = %entry
  %_data8 = getelementptr inbounds %"class.hls::stream", %"class.hls::stream"* %this1, i32 0, i32 2, !dbg !9061
  %call9 = call dereferenceable(12) %struct.ap_axis* @_ZNSt5dequeI7ap_axisILi32ELi2ELi5ELi6EESaIS1_EE5frontEv(%"class.std::deque"* %_data8) #3, !dbg !9063
  %call10 = call dereferenceable(12) %struct.ap_axis* @_ZN7ap_axisILi32ELi2ELi5ELi6EEaSERKS0_(%struct.ap_axis* %agg.result, %struct.ap_axis* dereferenceable(12) %call9), !dbg !9064
  %_data11 = getelementptr inbounds %"class.hls::stream", %"class.hls::stream"* %this1, i32 0, i32 2, !dbg !9065
  call void @_ZNSt5dequeI7ap_axisILi32ELi2ELi5ELi6EESaIS1_EE9pop_frontEv(%"class.std::deque"* %_data11) #3, !dbg !9066
  br label %if.end

if.end:                                           ; preds = %if.else, %if.then
  store i1 true, i1* %nrvo, align 1, !dbg !9067
  %nrvo.val = load i1, i1* %nrvo, align 1, !dbg !9068
  br i1 %nrvo.val, label %nrvo.skipdtor, label %nrvo.unused, !dbg !9068

nrvo.unused:                                      ; preds = %if.end
  call void @_ZN7ap_axisILi32ELi2ELi5ELi6EED2Ev(%struct.ap_axis* %agg.result) #3, !dbg !9068
  br label %nrvo.skipdtor, !dbg !9068

nrvo.skipdtor:                                    ; preds = %nrvo.unused, %if.end
  ret void, !dbg !9068
}

; Function Attrs: noinline nounwind optnone uwtable
define linkonce_odr dereferenceable(12) %struct.ap_axis* @_ZN7ap_axisILi32ELi2ELi5ELi6EEaSEOS0_(%struct.ap_axis* %this, %struct.ap_axis* dereferenceable(12)) #4 comdat align 2 !dbg !9069 {
entry:
  %this.addr = alloca %struct.ap_axis*, align 8
  %.addr = alloca %struct.ap_axis*, align 8
  store %struct.ap_axis* %this, %struct.ap_axis** %this.addr, align 8
  call void @llvm.dbg.declare(metadata %struct.ap_axis** %this.addr, metadata !9074, metadata !DIExpression()), !dbg !9075
  store %struct.ap_axis* %0, %struct.ap_axis** %.addr, align 8
  call void @llvm.dbg.declare(metadata %struct.ap_axis** %.addr, metadata !9076, metadata !DIExpression()), !dbg !9075
  %this1 = load %struct.ap_axis*, %struct.ap_axis** %this.addr, align 8
  %data = getelementptr inbounds %struct.ap_axis, %struct.ap_axis* %this1, i32 0, i32 0, !dbg !9077
  %1 = load %struct.ap_axis*, %struct.ap_axis** %.addr, align 8, !dbg !9077
  %data2 = getelementptr inbounds %struct.ap_axis, %struct.ap_axis* %1, i32 0, i32 0, !dbg !9077
  %call = call dereferenceable(4) %struct.ap_int* @_ZN6ap_intILi32EEaSERKS0_(%struct.ap_int* %data, %struct.ap_int* dereferenceable(4) %data2), !dbg !9077
  %keep = getelementptr inbounds %struct.ap_axis, %struct.ap_axis* %this1, i32 0, i32 1, !dbg !9077
  %2 = load %struct.ap_axis*, %struct.ap_axis** %.addr, align 8, !dbg !9077
  %keep3 = getelementptr inbounds %struct.ap_axis, %struct.ap_axis* %2, i32 0, i32 1, !dbg !9077
  %call4 = call dereferenceable(1) %struct.ap_uint* @_ZN7ap_uintILi4EEaSERKS0_(%struct.ap_uint* %keep, %struct.ap_uint* dereferenceable(1) %keep3), !dbg !9077
  %strb = getelementptr inbounds %struct.ap_axis, %struct.ap_axis* %this1, i32 0, i32 2, !dbg !9077
  %3 = load %struct.ap_axis*, %struct.ap_axis** %.addr, align 8, !dbg !9077
  %strb5 = getelementptr inbounds %struct.ap_axis, %struct.ap_axis* %3, i32 0, i32 2, !dbg !9077
  %call6 = call dereferenceable(1) %struct.ap_uint* @_ZN7ap_uintILi4EEaSERKS0_(%struct.ap_uint* %strb, %struct.ap_uint* dereferenceable(1) %strb5), !dbg !9077
  %user = getelementptr inbounds %struct.ap_axis, %struct.ap_axis* %this1, i32 0, i32 3, !dbg !9077
  %4 = load %struct.ap_axis*, %struct.ap_axis** %.addr, align 8, !dbg !9077
  %user7 = getelementptr inbounds %struct.ap_axis, %struct.ap_axis* %4, i32 0, i32 3, !dbg !9077
  %call8 = call dereferenceable(1) %struct.ap_uint.6* @_ZN7ap_uintILi2EEaSERKS0_(%struct.ap_uint.6* %user, %struct.ap_uint.6* dereferenceable(1) %user7), !dbg !9077
  %last = getelementptr inbounds %struct.ap_axis, %struct.ap_axis* %this1, i32 0, i32 4, !dbg !9077
  %5 = load %struct.ap_axis*, %struct.ap_axis** %.addr, align 8, !dbg !9077
  %last9 = getelementptr inbounds %struct.ap_axis, %struct.ap_axis* %5, i32 0, i32 4, !dbg !9077
  %call10 = call dereferenceable(1) %struct.ap_uint.10* @_ZN7ap_uintILi1EEaSERKS0_(%struct.ap_uint.10* %last, %struct.ap_uint.10* dereferenceable(1) %last9), !dbg !9077
  %id = getelementptr inbounds %struct.ap_axis, %struct.ap_axis* %this1, i32 0, i32 5, !dbg !9077
  %6 = load %struct.ap_axis*, %struct.ap_axis** %.addr, align 8, !dbg !9077
  %id11 = getelementptr inbounds %struct.ap_axis, %struct.ap_axis* %6, i32 0, i32 5, !dbg !9077
  %call12 = call dereferenceable(1) %struct.ap_uint.14* @_ZN7ap_uintILi5EEaSERKS0_(%struct.ap_uint.14* %id, %struct.ap_uint.14* dereferenceable(1) %id11), !dbg !9077
  %dest = getelementptr inbounds %struct.ap_axis, %struct.ap_axis* %this1, i32 0, i32 6, !dbg !9077
  %7 = load %struct.ap_axis*, %struct.ap_axis** %.addr, align 8, !dbg !9077
  %dest13 = getelementptr inbounds %struct.ap_axis, %struct.ap_axis* %7, i32 0, i32 6, !dbg !9077
  %call14 = call dereferenceable(1) %struct.ap_uint.18* @_ZN7ap_uintILi6EEaSERKS0_(%struct.ap_uint.18* %dest, %struct.ap_uint.18* dereferenceable(1) %dest13), !dbg !9077
  ret %struct.ap_axis* %this1, !dbg !9077
}

; Function Attrs: noinline nounwind optnone uwtable
define linkonce_odr void @_ZN7ap_axisILi32ELi2ELi5ELi6EED2Ev(%struct.ap_axis* %this) unnamed_addr #4 comdat align 2 !dbg !9079 {
entry:
  %this.addr = alloca %struct.ap_axis*, align 8
  store %struct.ap_axis* %this, %struct.ap_axis** %this.addr, align 8
  call void @llvm.dbg.declare(metadata %struct.ap_axis** %this.addr, metadata !9081, metadata !DIExpression()), !dbg !9082
  %this1 = load %struct.ap_axis*, %struct.ap_axis** %this.addr, align 8
  %dest = getelementptr inbounds %struct.ap_axis, %struct.ap_axis* %this1, i32 0, i32 6, !dbg !9083
  call void @_ZN7ap_uintILi6EED2Ev(%struct.ap_uint.18* %dest) #3, !dbg !9083
  %id = getelementptr inbounds %struct.ap_axis, %struct.ap_axis* %this1, i32 0, i32 5, !dbg !9083
  call void @_ZN7ap_uintILi5EED2Ev(%struct.ap_uint.14* %id) #3, !dbg !9083
  %last = getelementptr inbounds %struct.ap_axis, %struct.ap_axis* %this1, i32 0, i32 4, !dbg !9083
  call void @_ZN7ap_uintILi1EED2Ev(%struct.ap_uint.10* %last) #3, !dbg !9083
  %user = getelementptr inbounds %struct.ap_axis, %struct.ap_axis* %this1, i32 0, i32 3, !dbg !9083
  call void @_ZN7ap_uintILi2EED2Ev(%struct.ap_uint.6* %user) #3, !dbg !9083
  %strb = getelementptr inbounds %struct.ap_axis, %struct.ap_axis* %this1, i32 0, i32 2, !dbg !9083
  call void @_ZN7ap_uintILi4EED2Ev(%struct.ap_uint* %strb) #3, !dbg !9083
  %keep = getelementptr inbounds %struct.ap_axis, %struct.ap_axis* %this1, i32 0, i32 1, !dbg !9083
  call void @_ZN7ap_uintILi4EED2Ev(%struct.ap_uint* %keep) #3, !dbg !9083
  %data = getelementptr inbounds %struct.ap_axis, %struct.ap_axis* %this1, i32 0, i32 0, !dbg !9083
  call void @_ZN6ap_intILi32EED2Ev(%struct.ap_int* %data) #3, !dbg !9083
  ret void, !dbg !9085
}

; Function Attrs: noinline nounwind optnone uwtable
define linkonce_odr i32 @_ZNK11ap_int_baseILi32ELb1EE6to_intEv(%struct.ap_int_base* %this) #4 comdat align 2 !dbg !9086 !prof !9087 {
entry:
  %this.addr = alloca %struct.ap_int_base*, align 8
  store %struct.ap_int_base* %this, %struct.ap_int_base** %this.addr, align 8
  call void @llvm.dbg.declare(metadata %struct.ap_int_base** %this.addr, metadata !9088, metadata !DIExpression()), !dbg !9090
  %this1 = load %struct.ap_int_base*, %struct.ap_int_base** %this.addr, align 8
  %0 = bitcast %struct.ap_int_base* %this1 to %struct.ssdm_int_sim*, !dbg !9091
  %V = getelementptr inbounds %struct.ssdm_int_sim, %struct.ssdm_int_sim* %0, i32 0, i32 0, !dbg !9091
  %call = call i32 @_ZNK10ap_privateILi32ELb1ELb1EEcviEv(%class.ap_private* %V), !dbg !9092
  ret i32 %call, !dbg !9093
}

; Function Attrs: noinline nounwind optnone uwtable
define linkonce_odr void @_ZN6ap_intILi32EEC2Ei(%struct.ap_int* %this, i32 %val) unnamed_addr #4 comdat align 2 !dbg !9094 !prof !9095 {
entry:
  %this.addr = alloca %struct.ap_int*, align 8
  %val.addr = alloca i32, align 4
  store %struct.ap_int* %this, %struct.ap_int** %this.addr, align 8
  call void @llvm.dbg.declare(metadata %struct.ap_int** %this.addr, metadata !9096, metadata !DIExpression()), !dbg !9098
  store i32 %val, i32* %val.addr, align 4
  call void @llvm.dbg.declare(metadata i32* %val.addr, metadata !9099, metadata !DIExpression()), !dbg !9100
  %this1 = load %struct.ap_int*, %struct.ap_int** %this.addr, align 8
  %0 = bitcast %struct.ap_int* %this1 to %struct.ap_int_base*, !dbg !9100
  call void @_ZN11ap_int_baseILi32ELb1EEC2Ev(%struct.ap_int_base* %0), !dbg !9100
  %1 = load i32, i32* %val.addr, align 4, !dbg !9101
  %2 = bitcast %struct.ap_int* %this1 to %struct.ap_int_base*, !dbg !9101
  %3 = bitcast %struct.ap_int_base* %2 to %struct.ssdm_int_sim*, !dbg !9101
  %V = getelementptr inbounds %struct.ssdm_int_sim, %struct.ssdm_int_sim* %3, i32 0, i32 0, !dbg !9101
  %call = call dereferenceable(4) %class.ap_private* @_ZN10ap_privateILi32ELb1ELb1EEaSEi(%class.ap_private* %V, i32 %1), !dbg !9101
  ret void, !dbg !9100
}

; Function Attrs: noinline nounwind optnone uwtable
define linkonce_odr dereferenceable(4) %struct.ap_int* @_ZN6ap_intILi32EEaSERKS0_(%struct.ap_int* %this, %struct.ap_int* dereferenceable(4) %op2) #4 comdat align 2 !dbg !9103 !prof !9104 {
entry:
  %this.addr = alloca %struct.ap_int*, align 8
  %op2.addr = alloca %struct.ap_int*, align 8
  store %struct.ap_int* %this, %struct.ap_int** %this.addr, align 8
  call void @llvm.dbg.declare(metadata %struct.ap_int** %this.addr, metadata !9105, metadata !DIExpression()), !dbg !9106
  store %struct.ap_int* %op2, %struct.ap_int** %op2.addr, align 8
  call void @llvm.dbg.declare(metadata %struct.ap_int** %op2.addr, metadata !9107, metadata !DIExpression()), !dbg !9108
  %this1 = load %struct.ap_int*, %struct.ap_int** %this.addr, align 8
  %0 = load %struct.ap_int*, %struct.ap_int** %op2.addr, align 8, !dbg !9109
  %1 = bitcast %struct.ap_int* %0 to %struct.ssdm_int_sim*, !dbg !9109
  %V = getelementptr inbounds %struct.ssdm_int_sim, %struct.ssdm_int_sim* %1, i32 0, i32 0, !dbg !9110
  %2 = bitcast %struct.ap_int* %this1 to %struct.ap_int_base*, !dbg !9111
  %3 = bitcast %struct.ap_int_base* %2 to %struct.ssdm_int_sim*, !dbg !9111
  %V2 = getelementptr inbounds %struct.ssdm_int_sim, %struct.ssdm_int_sim* %3, i32 0, i32 0, !dbg !9111
  %call = call dereferenceable(4) %class.ap_private* @_ZN10ap_privateILi32ELb1ELb1EEaSERKS0_(%class.ap_private* %V2, %class.ap_private* dereferenceable(4) %V), !dbg !9112
  ret %struct.ap_int* %this1, !dbg !9113
}

; Function Attrs: noinline nounwind optnone uwtable
define linkonce_odr void @_ZN6ap_intILi32EED2Ev(%struct.ap_int* %this) unnamed_addr #4 comdat align 2 !dbg !9114 {
entry:
  %this.addr = alloca %struct.ap_int*, align 8
  store %struct.ap_int* %this, %struct.ap_int** %this.addr, align 8
  call void @llvm.dbg.declare(metadata %struct.ap_int** %this.addr, metadata !9116, metadata !DIExpression()), !dbg !9117
  %this1 = load %struct.ap_int*, %struct.ap_int** %this.addr, align 8
  %0 = bitcast %struct.ap_int* %this1 to %struct.ap_int_base*, !dbg !9118
  call void @_ZN11ap_int_baseILi32ELb1EED2Ev(%struct.ap_int_base* %0) #3, !dbg !9118
  ret void, !dbg !9120
}

; Function Attrs: noinline nounwind optnone uwtable
define linkonce_odr void @_ZN3hls6streamIiLi0EE5writeERKi(%"class.hls::stream.22"* %this, i32* dereferenceable(4) %tail) #4 comdat align 2 !dbg !9121 !prof !9122 {
entry:
  %this.addr = alloca %"class.hls::stream.22"*, align 8
  %tail.addr = alloca i32*, align 8
  store %"class.hls::stream.22"* %this, %"class.hls::stream.22"** %this.addr, align 8
  call void @llvm.dbg.declare(metadata %"class.hls::stream.22"** %this.addr, metadata !9123, metadata !DIExpression()), !dbg !9124
  store i32* %tail, i32** %tail.addr, align 8
  call void @llvm.dbg.declare(metadata i32** %tail.addr, metadata !9125, metadata !DIExpression()), !dbg !9126
  %this1 = load %"class.hls::stream.22"*, %"class.hls::stream.22"** %this.addr, align 8
  %_data = getelementptr inbounds %"class.hls::stream.22", %"class.hls::stream.22"* %this1, i32 0, i32 2, !dbg !9127
  %0 = load i32*, i32** %tail.addr, align 8, !dbg !9128
  call void @_ZNSt5dequeIiSaIiEE9push_backERKi(%"class.std::deque.23"* %_data, i32* dereferenceable(4) %0), !dbg !9129
  ret void, !dbg !9130
}

; Function Attrs: noinline nounwind optnone uwtable
define linkonce_odr i64 @_ZNK11ap_int_baseILi32ELb1EEcvxEv(%struct.ap_int_base* %this) #4 comdat align 2 !dbg !9131 !prof !9122 {
entry:
  %this.addr = alloca %struct.ap_int_base*, align 8
  store %struct.ap_int_base* %this, %struct.ap_int_base** %this.addr, align 8
  call void @llvm.dbg.declare(metadata %struct.ap_int_base** %this.addr, metadata !9132, metadata !DIExpression()), !dbg !9133
  %this1 = load %struct.ap_int_base*, %struct.ap_int_base** %this.addr, align 8
  %0 = bitcast %struct.ap_int_base* %this1 to %struct.ssdm_int_sim*, !dbg !9134
  %V = getelementptr inbounds %struct.ssdm_int_sim, %struct.ssdm_int_sim* %0, i32 0, i32 0, !dbg !9134
  %call = call i32 @_ZNK10ap_privateILi32ELb1ELb1EEcviEv(%class.ap_private* %V), !dbg !9135
  %conv = sext i32 %call to i64, !dbg !9135
  ret i64 %conv, !dbg !9136
}

; Function Attrs: noinline nounwind optnone uwtable
define linkonce_odr void @_ZN7ap_uintILi4EEC2Ei(%struct.ap_uint* %this, i32 %val) unnamed_addr #4 comdat align 2 !dbg !9137 !prof !9138 {
entry:
  %this.addr = alloca %struct.ap_uint*, align 8
  %val.addr = alloca i32, align 4
  store %struct.ap_uint* %this, %struct.ap_uint** %this.addr, align 8
  call void @llvm.dbg.declare(metadata %struct.ap_uint** %this.addr, metadata !9139, metadata !DIExpression()), !dbg !9141
  store i32 %val, i32* %val.addr, align 4
  call void @llvm.dbg.declare(metadata i32* %val.addr, metadata !9142, metadata !DIExpression()), !dbg !9143
  %this1 = load %struct.ap_uint*, %struct.ap_uint** %this.addr, align 8
  %0 = bitcast %struct.ap_uint* %this1 to %struct.ap_int_base.3*, !dbg !9143
  call void @_ZN11ap_int_baseILi4ELb0EEC2Ev(%struct.ap_int_base.3* %0), !dbg !9143
  %1 = load i32, i32* %val.addr, align 4, !dbg !9144
  %2 = bitcast %struct.ap_uint* %this1 to %struct.ap_int_base.3*, !dbg !9144
  %3 = bitcast %struct.ap_int_base.3* %2 to %struct.ssdm_int_sim.4*, !dbg !9144
  %V = getelementptr inbounds %struct.ssdm_int_sim.4, %struct.ssdm_int_sim.4* %3, i32 0, i32 0, !dbg !9144
  %call = call dereferenceable(1) %class.ap_private.5* @_ZN10ap_privateILi4ELb0ELb1EEaSEi(%class.ap_private.5* %V, i32 %1), !dbg !9144
  ret void, !dbg !9143
}

; Function Attrs: noinline nounwind optnone uwtable
define linkonce_odr dereferenceable(1) %struct.ap_uint* @_ZN7ap_uintILi4EEaSERKS0_(%struct.ap_uint* %this, %struct.ap_uint* dereferenceable(1) %op2) #4 comdat align 2 !dbg !9146 !prof !9147 {
entry:
  %this.addr = alloca %struct.ap_uint*, align 8
  %op2.addr = alloca %struct.ap_uint*, align 8
  store %struct.ap_uint* %this, %struct.ap_uint** %this.addr, align 8
  call void @llvm.dbg.declare(metadata %struct.ap_uint** %this.addr, metadata !9148, metadata !DIExpression()), !dbg !9149
  store %struct.ap_uint* %op2, %struct.ap_uint** %op2.addr, align 8
  call void @llvm.dbg.declare(metadata %struct.ap_uint** %op2.addr, metadata !9150, metadata !DIExpression()), !dbg !9151
  %this1 = load %struct.ap_uint*, %struct.ap_uint** %this.addr, align 8
  %0 = load %struct.ap_uint*, %struct.ap_uint** %op2.addr, align 8, !dbg !9152
  %1 = bitcast %struct.ap_uint* %0 to %struct.ssdm_int_sim.4*, !dbg !9152
  %V = getelementptr inbounds %struct.ssdm_int_sim.4, %struct.ssdm_int_sim.4* %1, i32 0, i32 0, !dbg !9153
  %2 = bitcast %struct.ap_uint* %this1 to %struct.ap_int_base.3*, !dbg !9154
  %3 = bitcast %struct.ap_int_base.3* %2 to %struct.ssdm_int_sim.4*, !dbg !9154
  %V2 = getelementptr inbounds %struct.ssdm_int_sim.4, %struct.ssdm_int_sim.4* %3, i32 0, i32 0, !dbg !9154
  %call = call dereferenceable(1) %class.ap_private.5* @_ZN10ap_privateILi4ELb0ELb1EEaSERKS0_(%class.ap_private.5* %V2, %class.ap_private.5* dereferenceable(1) %V), !dbg !9155
  ret %struct.ap_uint* %this1, !dbg !9156
}

; Function Attrs: noinline nounwind optnone uwtable
define linkonce_odr void @_ZN7ap_uintILi4EED2Ev(%struct.ap_uint* %this) unnamed_addr #4 comdat align 2 !dbg !9157 {
entry:
  %this.addr = alloca %struct.ap_uint*, align 8
  store %struct.ap_uint* %this, %struct.ap_uint** %this.addr, align 8
  call void @llvm.dbg.declare(metadata %struct.ap_uint** %this.addr, metadata !9159, metadata !DIExpression()), !dbg !9160
  %this1 = load %struct.ap_uint*, %struct.ap_uint** %this.addr, align 8
  %0 = bitcast %struct.ap_uint* %this1 to %struct.ap_int_base.3*, !dbg !9161
  call void @_ZN11ap_int_baseILi4ELb0EED2Ev(%struct.ap_int_base.3* %0) #3, !dbg !9161
  ret void, !dbg !9163
}

; Function Attrs: noinline nounwind optnone uwtable
define linkonce_odr void @_ZN7ap_uintILi2EEC2Ei(%struct.ap_uint.6* %this, i32 %val) unnamed_addr #4 comdat align 2 !dbg !9164 !prof !9165 {
entry:
  %this.addr = alloca %struct.ap_uint.6*, align 8
  %val.addr = alloca i32, align 4
  store %struct.ap_uint.6* %this, %struct.ap_uint.6** %this.addr, align 8
  call void @llvm.dbg.declare(metadata %struct.ap_uint.6** %this.addr, metadata !9166, metadata !DIExpression()), !dbg !9168
  store i32 %val, i32* %val.addr, align 4
  call void @llvm.dbg.declare(metadata i32* %val.addr, metadata !9169, metadata !DIExpression()), !dbg !9170
  %this1 = load %struct.ap_uint.6*, %struct.ap_uint.6** %this.addr, align 8
  %0 = bitcast %struct.ap_uint.6* %this1 to %struct.ap_int_base.7*, !dbg !9170
  call void @_ZN11ap_int_baseILi2ELb0EEC2Ev(%struct.ap_int_base.7* %0), !dbg !9170
  %1 = load i32, i32* %val.addr, align 4, !dbg !9171
  %2 = bitcast %struct.ap_uint.6* %this1 to %struct.ap_int_base.7*, !dbg !9171
  %3 = bitcast %struct.ap_int_base.7* %2 to %struct.ssdm_int_sim.8*, !dbg !9171
  %V = getelementptr inbounds %struct.ssdm_int_sim.8, %struct.ssdm_int_sim.8* %3, i32 0, i32 0, !dbg !9171
  %call = call dereferenceable(1) %class.ap_private.9* @_ZN10ap_privateILi2ELb0ELb1EEaSEi(%class.ap_private.9* %V, i32 %1), !dbg !9171
  ret void, !dbg !9170
}

; Function Attrs: noinline nounwind optnone uwtable
define linkonce_odr dereferenceable(1) %struct.ap_uint.6* @_ZN7ap_uintILi2EEaSERKS0_(%struct.ap_uint.6* %this, %struct.ap_uint.6* dereferenceable(1) %op2) #4 comdat align 2 !dbg !9173 !prof !9174 {
entry:
  %this.addr = alloca %struct.ap_uint.6*, align 8
  %op2.addr = alloca %struct.ap_uint.6*, align 8
  store %struct.ap_uint.6* %this, %struct.ap_uint.6** %this.addr, align 8
  call void @llvm.dbg.declare(metadata %struct.ap_uint.6** %this.addr, metadata !9175, metadata !DIExpression()), !dbg !9176
  store %struct.ap_uint.6* %op2, %struct.ap_uint.6** %op2.addr, align 8
  call void @llvm.dbg.declare(metadata %struct.ap_uint.6** %op2.addr, metadata !9177, metadata !DIExpression()), !dbg !9178
  %this1 = load %struct.ap_uint.6*, %struct.ap_uint.6** %this.addr, align 8
  %0 = load %struct.ap_uint.6*, %struct.ap_uint.6** %op2.addr, align 8, !dbg !9179
  %1 = bitcast %struct.ap_uint.6* %0 to %struct.ssdm_int_sim.8*, !dbg !9179
  %V = getelementptr inbounds %struct.ssdm_int_sim.8, %struct.ssdm_int_sim.8* %1, i32 0, i32 0, !dbg !9180
  %2 = bitcast %struct.ap_uint.6* %this1 to %struct.ap_int_base.7*, !dbg !9181
  %3 = bitcast %struct.ap_int_base.7* %2 to %struct.ssdm_int_sim.8*, !dbg !9181
  %V2 = getelementptr inbounds %struct.ssdm_int_sim.8, %struct.ssdm_int_sim.8* %3, i32 0, i32 0, !dbg !9181
  %call = call dereferenceable(1) %class.ap_private.9* @_ZN10ap_privateILi2ELb0ELb1EEaSERKS0_(%class.ap_private.9* %V2, %class.ap_private.9* dereferenceable(1) %V), !dbg !9182
  ret %struct.ap_uint.6* %this1, !dbg !9183
}

; Function Attrs: noinline nounwind optnone uwtable
define linkonce_odr void @_ZN7ap_uintILi2EED2Ev(%struct.ap_uint.6* %this) unnamed_addr #4 comdat align 2 !dbg !9184 {
entry:
  %this.addr = alloca %struct.ap_uint.6*, align 8
  store %struct.ap_uint.6* %this, %struct.ap_uint.6** %this.addr, align 8
  call void @llvm.dbg.declare(metadata %struct.ap_uint.6** %this.addr, metadata !9186, metadata !DIExpression()), !dbg !9187
  %this1 = load %struct.ap_uint.6*, %struct.ap_uint.6** %this.addr, align 8
  %0 = bitcast %struct.ap_uint.6* %this1 to %struct.ap_int_base.7*, !dbg !9188
  call void @_ZN11ap_int_baseILi2ELb0EED2Ev(%struct.ap_int_base.7* %0) #3, !dbg !9188
  ret void, !dbg !9190
}

; Function Attrs: noinline nounwind optnone uwtable
define linkonce_odr void @_ZN7ap_uintILi1EEC2Ei(%struct.ap_uint.10* %this, i32 %val) unnamed_addr #4 comdat align 2 !dbg !9191 !prof !9165 {
entry:
  %this.addr = alloca %struct.ap_uint.10*, align 8
  %val.addr = alloca i32, align 4
  store %struct.ap_uint.10* %this, %struct.ap_uint.10** %this.addr, align 8
  call void @llvm.dbg.declare(metadata %struct.ap_uint.10** %this.addr, metadata !9192, metadata !DIExpression()), !dbg !9194
  store i32 %val, i32* %val.addr, align 4
  call void @llvm.dbg.declare(metadata i32* %val.addr, metadata !9195, metadata !DIExpression()), !dbg !9196
  %this1 = load %struct.ap_uint.10*, %struct.ap_uint.10** %this.addr, align 8
  %0 = bitcast %struct.ap_uint.10* %this1 to %struct.ap_int_base.11*, !dbg !9196
  call void @_ZN11ap_int_baseILi1ELb0EEC2Ev(%struct.ap_int_base.11* %0), !dbg !9196
  %1 = load i32, i32* %val.addr, align 4, !dbg !9197
  %2 = bitcast %struct.ap_uint.10* %this1 to %struct.ap_int_base.11*, !dbg !9197
  %3 = bitcast %struct.ap_int_base.11* %2 to %struct.ssdm_int_sim.12*, !dbg !9197
  %V = getelementptr inbounds %struct.ssdm_int_sim.12, %struct.ssdm_int_sim.12* %3, i32 0, i32 0, !dbg !9197
  %call = call dereferenceable(1) %class.ap_private.13* @_ZN10ap_privateILi1ELb0ELb1EEaSEi(%class.ap_private.13* %V, i32 %1), !dbg !9197
  ret void, !dbg !9196
}

; Function Attrs: noinline nounwind optnone uwtable
define linkonce_odr dereferenceable(1) %struct.ap_uint.10* @_ZN7ap_uintILi1EEaSERKS0_(%struct.ap_uint.10* %this, %struct.ap_uint.10* dereferenceable(1) %op2) #4 comdat align 2 !dbg !9199 !prof !9174 {
entry:
  %this.addr = alloca %struct.ap_uint.10*, align 8
  %op2.addr = alloca %struct.ap_uint.10*, align 8
  store %struct.ap_uint.10* %this, %struct.ap_uint.10** %this.addr, align 8
  call void @llvm.dbg.declare(metadata %struct.ap_uint.10** %this.addr, metadata !9200, metadata !DIExpression()), !dbg !9201
  store %struct.ap_uint.10* %op2, %struct.ap_uint.10** %op2.addr, align 8
  call void @llvm.dbg.declare(metadata %struct.ap_uint.10** %op2.addr, metadata !9202, metadata !DIExpression()), !dbg !9203
  %this1 = load %struct.ap_uint.10*, %struct.ap_uint.10** %this.addr, align 8
  %0 = load %struct.ap_uint.10*, %struct.ap_uint.10** %op2.addr, align 8, !dbg !9204
  %1 = bitcast %struct.ap_uint.10* %0 to %struct.ssdm_int_sim.12*, !dbg !9204
  %V = getelementptr inbounds %struct.ssdm_int_sim.12, %struct.ssdm_int_sim.12* %1, i32 0, i32 0, !dbg !9205
  %2 = bitcast %struct.ap_uint.10* %this1 to %struct.ap_int_base.11*, !dbg !9206
  %3 = bitcast %struct.ap_int_base.11* %2 to %struct.ssdm_int_sim.12*, !dbg !9206
  %V2 = getelementptr inbounds %struct.ssdm_int_sim.12, %struct.ssdm_int_sim.12* %3, i32 0, i32 0, !dbg !9206
  %call = call dereferenceable(1) %class.ap_private.13* @_ZN10ap_privateILi1ELb0ELb1EEaSERKS0_(%class.ap_private.13* %V2, %class.ap_private.13* dereferenceable(1) %V), !dbg !9207
  ret %struct.ap_uint.10* %this1, !dbg !9208
}

; Function Attrs: noinline nounwind optnone uwtable
define linkonce_odr void @_ZN7ap_uintILi1EED2Ev(%struct.ap_uint.10* %this) unnamed_addr #4 comdat align 2 !dbg !9209 {
entry:
  %this.addr = alloca %struct.ap_uint.10*, align 8
  store %struct.ap_uint.10* %this, %struct.ap_uint.10** %this.addr, align 8
  call void @llvm.dbg.declare(metadata %struct.ap_uint.10** %this.addr, metadata !9211, metadata !DIExpression()), !dbg !9212
  %this1 = load %struct.ap_uint.10*, %struct.ap_uint.10** %this.addr, align 8
  %0 = bitcast %struct.ap_uint.10* %this1 to %struct.ap_int_base.11*, !dbg !9213
  call void @_ZN11ap_int_baseILi1ELb0EED2Ev(%struct.ap_int_base.11* %0) #3, !dbg !9213
  ret void, !dbg !9215
}

; Function Attrs: noinline nounwind optnone uwtable
define linkonce_odr void @_ZN7ap_uintILi5EEC2Ei(%struct.ap_uint.14* %this, i32 %val) unnamed_addr #4 comdat align 2 !dbg !9216 !prof !9165 {
entry:
  %this.addr = alloca %struct.ap_uint.14*, align 8
  %val.addr = alloca i32, align 4
  store %struct.ap_uint.14* %this, %struct.ap_uint.14** %this.addr, align 8
  call void @llvm.dbg.declare(metadata %struct.ap_uint.14** %this.addr, metadata !9217, metadata !DIExpression()), !dbg !9219
  store i32 %val, i32* %val.addr, align 4
  call void @llvm.dbg.declare(metadata i32* %val.addr, metadata !9220, metadata !DIExpression()), !dbg !9221
  %this1 = load %struct.ap_uint.14*, %struct.ap_uint.14** %this.addr, align 8
  %0 = bitcast %struct.ap_uint.14* %this1 to %struct.ap_int_base.15*, !dbg !9221
  call void @_ZN11ap_int_baseILi5ELb0EEC2Ev(%struct.ap_int_base.15* %0), !dbg !9221
  %1 = load i32, i32* %val.addr, align 4, !dbg !9222
  %2 = bitcast %struct.ap_uint.14* %this1 to %struct.ap_int_base.15*, !dbg !9222
  %3 = bitcast %struct.ap_int_base.15* %2 to %struct.ssdm_int_sim.16*, !dbg !9222
  %V = getelementptr inbounds %struct.ssdm_int_sim.16, %struct.ssdm_int_sim.16* %3, i32 0, i32 0, !dbg !9222
  %call = call dereferenceable(1) %class.ap_private.17* @_ZN10ap_privateILi5ELb0ELb1EEaSEi(%class.ap_private.17* %V, i32 %1), !dbg !9222
  ret void, !dbg !9221
}

; Function Attrs: noinline nounwind optnone uwtable
define linkonce_odr dereferenceable(1) %struct.ap_uint.14* @_ZN7ap_uintILi5EEaSERKS0_(%struct.ap_uint.14* %this, %struct.ap_uint.14* dereferenceable(1) %op2) #4 comdat align 2 !dbg !9224 !prof !9174 {
entry:
  %this.addr = alloca %struct.ap_uint.14*, align 8
  %op2.addr = alloca %struct.ap_uint.14*, align 8
  store %struct.ap_uint.14* %this, %struct.ap_uint.14** %this.addr, align 8
  call void @llvm.dbg.declare(metadata %struct.ap_uint.14** %this.addr, metadata !9225, metadata !DIExpression()), !dbg !9226
  store %struct.ap_uint.14* %op2, %struct.ap_uint.14** %op2.addr, align 8
  call void @llvm.dbg.declare(metadata %struct.ap_uint.14** %op2.addr, metadata !9227, metadata !DIExpression()), !dbg !9228
  %this1 = load %struct.ap_uint.14*, %struct.ap_uint.14** %this.addr, align 8
  %0 = load %struct.ap_uint.14*, %struct.ap_uint.14** %op2.addr, align 8, !dbg !9229
  %1 = bitcast %struct.ap_uint.14* %0 to %struct.ssdm_int_sim.16*, !dbg !9229
  %V = getelementptr inbounds %struct.ssdm_int_sim.16, %struct.ssdm_int_sim.16* %1, i32 0, i32 0, !dbg !9230
  %2 = bitcast %struct.ap_uint.14* %this1 to %struct.ap_int_base.15*, !dbg !9231
  %3 = bitcast %struct.ap_int_base.15* %2 to %struct.ssdm_int_sim.16*, !dbg !9231
  %V2 = getelementptr inbounds %struct.ssdm_int_sim.16, %struct.ssdm_int_sim.16* %3, i32 0, i32 0, !dbg !9231
  %call = call dereferenceable(1) %class.ap_private.17* @_ZN10ap_privateILi5ELb0ELb1EEaSERKS0_(%class.ap_private.17* %V2, %class.ap_private.17* dereferenceable(1) %V), !dbg !9232
  ret %struct.ap_uint.14* %this1, !dbg !9233
}

; Function Attrs: noinline nounwind optnone uwtable
define linkonce_odr void @_ZN7ap_uintILi5EED2Ev(%struct.ap_uint.14* %this) unnamed_addr #4 comdat align 2 !dbg !9234 {
entry:
  %this.addr = alloca %struct.ap_uint.14*, align 8
  store %struct.ap_uint.14* %this, %struct.ap_uint.14** %this.addr, align 8
  call void @llvm.dbg.declare(metadata %struct.ap_uint.14** %this.addr, metadata !9236, metadata !DIExpression()), !dbg !9237
  %this1 = load %struct.ap_uint.14*, %struct.ap_uint.14** %this.addr, align 8
  %0 = bitcast %struct.ap_uint.14* %this1 to %struct.ap_int_base.15*, !dbg !9238
  call void @_ZN11ap_int_baseILi5ELb0EED2Ev(%struct.ap_int_base.15* %0) #3, !dbg !9238
  ret void, !dbg !9240
}

; Function Attrs: noinline nounwind optnone uwtable
define linkonce_odr void @_ZN7ap_uintILi6EEC2Ei(%struct.ap_uint.18* %this, i32 %val) unnamed_addr #4 comdat align 2 !dbg !9241 !prof !9165 {
entry:
  %this.addr = alloca %struct.ap_uint.18*, align 8
  %val.addr = alloca i32, align 4
  store %struct.ap_uint.18* %this, %struct.ap_uint.18** %this.addr, align 8
  call void @llvm.dbg.declare(metadata %struct.ap_uint.18** %this.addr, metadata !9242, metadata !DIExpression()), !dbg !9244
  store i32 %val, i32* %val.addr, align 4
  call void @llvm.dbg.declare(metadata i32* %val.addr, metadata !9245, metadata !DIExpression()), !dbg !9246
  %this1 = load %struct.ap_uint.18*, %struct.ap_uint.18** %this.addr, align 8
  %0 = bitcast %struct.ap_uint.18* %this1 to %struct.ap_int_base.19*, !dbg !9246
  call void @_ZN11ap_int_baseILi6ELb0EEC2Ev(%struct.ap_int_base.19* %0), !dbg !9246
  %1 = load i32, i32* %val.addr, align 4, !dbg !9247
  %2 = bitcast %struct.ap_uint.18* %this1 to %struct.ap_int_base.19*, !dbg !9247
  %3 = bitcast %struct.ap_int_base.19* %2 to %struct.ssdm_int_sim.20*, !dbg !9247
  %V = getelementptr inbounds %struct.ssdm_int_sim.20, %struct.ssdm_int_sim.20* %3, i32 0, i32 0, !dbg !9247
  %call = call dereferenceable(1) %class.ap_private.21* @_ZN10ap_privateILi6ELb0ELb1EEaSEi(%class.ap_private.21* %V, i32 %1), !dbg !9247
  ret void, !dbg !9246
}

; Function Attrs: noinline nounwind optnone uwtable
define linkonce_odr dereferenceable(1) %struct.ap_uint.18* @_ZN7ap_uintILi6EEaSERKS0_(%struct.ap_uint.18* %this, %struct.ap_uint.18* dereferenceable(1) %op2) #4 comdat align 2 !dbg !9249 !prof !9174 {
entry:
  %this.addr = alloca %struct.ap_uint.18*, align 8
  %op2.addr = alloca %struct.ap_uint.18*, align 8
  store %struct.ap_uint.18* %this, %struct.ap_uint.18** %this.addr, align 8
  call void @llvm.dbg.declare(metadata %struct.ap_uint.18** %this.addr, metadata !9250, metadata !DIExpression()), !dbg !9251
  store %struct.ap_uint.18* %op2, %struct.ap_uint.18** %op2.addr, align 8
  call void @llvm.dbg.declare(metadata %struct.ap_uint.18** %op2.addr, metadata !9252, metadata !DIExpression()), !dbg !9253
  %this1 = load %struct.ap_uint.18*, %struct.ap_uint.18** %this.addr, align 8
  %0 = load %struct.ap_uint.18*, %struct.ap_uint.18** %op2.addr, align 8, !dbg !9254
  %1 = bitcast %struct.ap_uint.18* %0 to %struct.ssdm_int_sim.20*, !dbg !9254
  %V = getelementptr inbounds %struct.ssdm_int_sim.20, %struct.ssdm_int_sim.20* %1, i32 0, i32 0, !dbg !9255
  %2 = bitcast %struct.ap_uint.18* %this1 to %struct.ap_int_base.19*, !dbg !9256
  %3 = bitcast %struct.ap_int_base.19* %2 to %struct.ssdm_int_sim.20*, !dbg !9256
  %V2 = getelementptr inbounds %struct.ssdm_int_sim.20, %struct.ssdm_int_sim.20* %3, i32 0, i32 0, !dbg !9256
  %call = call dereferenceable(1) %class.ap_private.21* @_ZN10ap_privateILi6ELb0ELb1EEaSERKS0_(%class.ap_private.21* %V2, %class.ap_private.21* dereferenceable(1) %V), !dbg !9257
  ret %struct.ap_uint.18* %this1, !dbg !9258
}

; Function Attrs: noinline nounwind optnone uwtable
define linkonce_odr void @_ZN7ap_uintILi6EED2Ev(%struct.ap_uint.18* %this) unnamed_addr #4 comdat align 2 !dbg !9259 {
entry:
  %this.addr = alloca %struct.ap_uint.18*, align 8
  store %struct.ap_uint.18* %this, %struct.ap_uint.18** %this.addr, align 8
  call void @llvm.dbg.declare(metadata %struct.ap_uint.18** %this.addr, metadata !9261, metadata !DIExpression()), !dbg !9262
  %this1 = load %struct.ap_uint.18*, %struct.ap_uint.18** %this.addr, align 8
  %0 = bitcast %struct.ap_uint.18* %this1 to %struct.ap_int_base.19*, !dbg !9263
  call void @_ZN11ap_int_baseILi6ELb0EED2Ev(%struct.ap_int_base.19* %0) #3, !dbg !9263
  ret void, !dbg !9265
}

; Function Attrs: noinline nounwind optnone uwtable
define linkonce_odr i32 @_ZN3hls6streamIiLi0EE4readEv(%"class.hls::stream.22"* %this) #4 comdat align 2 !dbg !9266 !prof !9122 {
entry:
  %this.addr = alloca %"class.hls::stream.22"*, align 8
  %elem = alloca i32, align 4
  store %"class.hls::stream.22"* %this, %"class.hls::stream.22"** %this.addr, align 8
  call void @llvm.dbg.declare(metadata %"class.hls::stream.22"** %this.addr, metadata !9267, metadata !DIExpression()), !dbg !9268
  %this1 = load %"class.hls::stream.22"*, %"class.hls::stream.22"** %this.addr, align 8
  call void @llvm.dbg.declare(metadata i32* %elem, metadata !9269, metadata !DIExpression()), !dbg !9270
  %_data = getelementptr inbounds %"class.hls::stream.22", %"class.hls::stream.22"* %this1, i32 0, i32 2, !dbg !9271
  %call = call zeroext i1 @_ZNKSt5dequeIiSaIiEE5emptyEv(%"class.std::deque.23"* %_data) #3, !dbg !9273
  br i1 %call, label %if.then, label %if.else, !dbg !9274, !prof !9275

if.then:                                          ; preds = %entry
  %call2 = call dereferenceable(272) %"class.std::basic_ostream"* @_ZStlsISt11char_traitsIcEERSt13basic_ostreamIcT_ES5_PKc(%"class.std::basic_ostream"* dereferenceable(272) @_ZSt4cout, i8* getelementptr inbounds ([23 x i8], [23 x i8]* @.str.2, i32 0, i32 0)), !dbg !9276
  %_name = getelementptr inbounds %"class.hls::stream.22", %"class.hls::stream.22"* %this1, i32 0, i32 1, !dbg !9278
  %call3 = call dereferenceable(272) %"class.std::basic_ostream"* @_ZStlsIcSt11char_traitsIcESaIcEERSt13basic_ostreamIT_T0_ES7_RKNSt7__cxx1112basic_stringIS4_S5_T1_EE(%"class.std::basic_ostream"* dereferenceable(272) %call2, %"class.std::__cxx11::basic_string"* dereferenceable(32) %_name), !dbg !9279
  %call4 = call dereferenceable(272) %"class.std::basic_ostream"* @_ZStlsISt11char_traitsIcEERSt13basic_ostreamIcT_ES5_PKc(%"class.std::basic_ostream"* dereferenceable(272) %call3, i8* getelementptr inbounds ([23 x i8], [23 x i8]* @.str.5, i32 0, i32 0)), !dbg !9280
  %call5 = call dereferenceable(272) %"class.std::basic_ostream"* @_ZStlsISt11char_traitsIcEERSt13basic_ostreamIcT_ES5_PKc(%"class.std::basic_ostream"* dereferenceable(272) %call4, i8* getelementptr inbounds ([45 x i8], [45 x i8]* @.str.4, i32 0, i32 0)), !dbg !9281
  %call6 = call dereferenceable(272) %"class.std::basic_ostream"* @_ZNSolsEPFRSoS_E(%"class.std::basic_ostream"* %call5, %"class.std::basic_ostream"* (%"class.std::basic_ostream"*)* @_ZSt4endlIcSt11char_traitsIcEERSt13basic_ostreamIT_T0_ES6_), !dbg !9282
  store i32 0, i32* %elem, align 4, !dbg !9283
  br label %if.end, !dbg !9284

if.else:                                          ; preds = %entry
  %_data7 = getelementptr inbounds %"class.hls::stream.22", %"class.hls::stream.22"* %this1, i32 0, i32 2, !dbg !9285
  %call8 = call dereferenceable(4) i32* @_ZNSt5dequeIiSaIiEE5frontEv(%"class.std::deque.23"* %_data7) #3, !dbg !9287
  %0 = load i32, i32* %call8, align 4, !dbg !9287
  store i32 %0, i32* %elem, align 4, !dbg !9288
  %_data9 = getelementptr inbounds %"class.hls::stream.22", %"class.hls::stream.22"* %this1, i32 0, i32 2, !dbg !9289
  call void @_ZNSt5dequeIiSaIiEE9pop_frontEv(%"class.std::deque.23"* %_data9) #3, !dbg !9290
  br label %if.end

if.end:                                           ; preds = %if.else, %if.then
  %1 = load i32, i32* %elem, align 4, !dbg !9291
  ret i32 %1, !dbg !9292
}

; Function Attrs: noinline nounwind optnone uwtable
define linkonce_odr void @_ZN3hls6streamI7ap_axisILi32ELi2ELi5ELi6EELi0EE5writeERKS2_(%"class.hls::stream"* %this, %struct.ap_axis* dereferenceable(12) %tail) #4 comdat align 2 !dbg !9293 !prof !9122 {
entry:
  %this.addr = alloca %"class.hls::stream"*, align 8
  %tail.addr = alloca %struct.ap_axis*, align 8
  store %"class.hls::stream"* %this, %"class.hls::stream"** %this.addr, align 8
  call void @llvm.dbg.declare(metadata %"class.hls::stream"** %this.addr, metadata !9297, metadata !DIExpression()), !dbg !9298
  store %struct.ap_axis* %tail, %struct.ap_axis** %tail.addr, align 8
  call void @llvm.dbg.declare(metadata %struct.ap_axis** %tail.addr, metadata !9299, metadata !DIExpression()), !dbg !9300
  %this1 = load %"class.hls::stream"*, %"class.hls::stream"** %this.addr, align 8
  %_data = getelementptr inbounds %"class.hls::stream", %"class.hls::stream"* %this1, i32 0, i32 2, !dbg !9301
  %0 = load %struct.ap_axis*, %struct.ap_axis** %tail.addr, align 8, !dbg !9302
  call void @_ZNSt5dequeI7ap_axisILi32ELi2ELi5ELi6EESaIS1_EE9push_backERKS1_(%"class.std::deque"* %_data, %struct.ap_axis* dereferenceable(12) %0), !dbg !9303
  ret void, !dbg !9304
}

; Function Attrs: noinline nounwind optnone uwtable
define linkonce_odr void @_ZN6ap_intILi32EEC2Ev(%struct.ap_int* %this) unnamed_addr #4 comdat align 2 !dbg !9305 !prof !9122 {
entry:
  %this.addr = alloca %struct.ap_int*, align 8
  store %struct.ap_int* %this, %struct.ap_int** %this.addr, align 8
  call void @llvm.dbg.declare(metadata %struct.ap_int** %this.addr, metadata !9306, metadata !DIExpression()), !dbg !9307
  %this1 = load %struct.ap_int*, %struct.ap_int** %this.addr, align 8
  %0 = bitcast %struct.ap_int* %this1 to %struct.ap_int_base*, !dbg !9308
  call void @_ZN11ap_int_baseILi32ELb1EEC2Ev(%struct.ap_int_base* %0), !dbg !9309
  ret void, !dbg !9310
}

; Function Attrs: noinline nounwind optnone uwtable
define linkonce_odr void @_ZN7ap_uintILi4EEC2Ev(%struct.ap_uint* %this) unnamed_addr #4 comdat align 2 !dbg !9311 !prof !9312 {
entry:
  %this.addr = alloca %struct.ap_uint*, align 8
  store %struct.ap_uint* %this, %struct.ap_uint** %this.addr, align 8
  call void @llvm.dbg.declare(metadata %struct.ap_uint** %this.addr, metadata !9313, metadata !DIExpression()), !dbg !9314
  %this1 = load %struct.ap_uint*, %struct.ap_uint** %this.addr, align 8
  %0 = bitcast %struct.ap_uint* %this1 to %struct.ap_int_base.3*, !dbg !9315
  call void @_ZN11ap_int_baseILi4ELb0EEC2Ev(%struct.ap_int_base.3* %0), !dbg !9316
  ret void, !dbg !9317
}

; Function Attrs: noinline nounwind optnone uwtable
define linkonce_odr void @_ZN7ap_uintILi2EEC2Ev(%struct.ap_uint.6* %this) unnamed_addr #4 comdat align 2 !dbg !9318 !prof !9122 {
entry:
  %this.addr = alloca %struct.ap_uint.6*, align 8
  store %struct.ap_uint.6* %this, %struct.ap_uint.6** %this.addr, align 8
  call void @llvm.dbg.declare(metadata %struct.ap_uint.6** %this.addr, metadata !9319, metadata !DIExpression()), !dbg !9320
  %this1 = load %struct.ap_uint.6*, %struct.ap_uint.6** %this.addr, align 8
  %0 = bitcast %struct.ap_uint.6* %this1 to %struct.ap_int_base.7*, !dbg !9321
  call void @_ZN11ap_int_baseILi2ELb0EEC2Ev(%struct.ap_int_base.7* %0), !dbg !9322
  ret void, !dbg !9323
}

; Function Attrs: noinline nounwind optnone uwtable
define linkonce_odr void @_ZN7ap_uintILi1EEC2Ev(%struct.ap_uint.10* %this) unnamed_addr #4 comdat align 2 !dbg !9324 !prof !9122 {
entry:
  %this.addr = alloca %struct.ap_uint.10*, align 8
  store %struct.ap_uint.10* %this, %struct.ap_uint.10** %this.addr, align 8
  call void @llvm.dbg.declare(metadata %struct.ap_uint.10** %this.addr, metadata !9325, metadata !DIExpression()), !dbg !9326
  %this1 = load %struct.ap_uint.10*, %struct.ap_uint.10** %this.addr, align 8
  %0 = bitcast %struct.ap_uint.10* %this1 to %struct.ap_int_base.11*, !dbg !9327
  call void @_ZN11ap_int_baseILi1ELb0EEC2Ev(%struct.ap_int_base.11* %0), !dbg !9328
  ret void, !dbg !9329
}

; Function Attrs: noinline nounwind optnone uwtable
define linkonce_odr void @_ZN7ap_uintILi5EEC2Ev(%struct.ap_uint.14* %this) unnamed_addr #4 comdat align 2 !dbg !9330 !prof !9122 {
entry:
  %this.addr = alloca %struct.ap_uint.14*, align 8
  store %struct.ap_uint.14* %this, %struct.ap_uint.14** %this.addr, align 8
  call void @llvm.dbg.declare(metadata %struct.ap_uint.14** %this.addr, metadata !9331, metadata !DIExpression()), !dbg !9332
  %this1 = load %struct.ap_uint.14*, %struct.ap_uint.14** %this.addr, align 8
  %0 = bitcast %struct.ap_uint.14* %this1 to %struct.ap_int_base.15*, !dbg !9333
  call void @_ZN11ap_int_baseILi5ELb0EEC2Ev(%struct.ap_int_base.15* %0), !dbg !9334
  ret void, !dbg !9335
}

; Function Attrs: noinline nounwind optnone uwtable
define linkonce_odr void @_ZN7ap_uintILi6EEC2Ev(%struct.ap_uint.18* %this) unnamed_addr #4 comdat align 2 !dbg !9336 !prof !9122 {
entry:
  %this.addr = alloca %struct.ap_uint.18*, align 8
  store %struct.ap_uint.18* %this, %struct.ap_uint.18** %this.addr, align 8
  call void @llvm.dbg.declare(metadata %struct.ap_uint.18** %this.addr, metadata !9337, metadata !DIExpression()), !dbg !9338
  %this1 = load %struct.ap_uint.18*, %struct.ap_uint.18** %this.addr, align 8
  %0 = bitcast %struct.ap_uint.18* %this1 to %struct.ap_int_base.19*, !dbg !9339
  call void @_ZN11ap_int_baseILi6ELb0EEC2Ev(%struct.ap_int_base.19* %0), !dbg !9340
  ret void, !dbg !9341
}

; Function Attrs: noinline nounwind optnone uwtable
define linkonce_odr void @_ZN11ap_int_baseILi32ELb1EEC2Ev(%struct.ap_int_base* %this) unnamed_addr #4 comdat align 2 !dbg !9342 !prof !9343 {
entry:
  %this.addr = alloca %struct.ap_int_base*, align 8
  store %struct.ap_int_base* %this, %struct.ap_int_base** %this.addr, align 8
  call void @llvm.dbg.declare(metadata %struct.ap_int_base** %this.addr, metadata !9344, metadata !DIExpression()), !dbg !9346
  %this1 = load %struct.ap_int_base*, %struct.ap_int_base** %this.addr, align 8
  %0 = bitcast %struct.ap_int_base* %this1 to %struct.ssdm_int_sim*, !dbg !9347
  call void @_ZN12ssdm_int_simILi32ELb1EEC2Ev(%struct.ssdm_int_sim* %0), !dbg !9348
  ret void, !dbg !9349
}

; Function Attrs: noinline nounwind optnone uwtable
define linkonce_odr void @_ZN12ssdm_int_simILi32ELb1EEC2Ev(%struct.ssdm_int_sim* %this) unnamed_addr #4 comdat align 2 !dbg !9350 !prof !9343 {
entry:
  %this.addr = alloca %struct.ssdm_int_sim*, align 8
  store %struct.ssdm_int_sim* %this, %struct.ssdm_int_sim** %this.addr, align 8
  call void @llvm.dbg.declare(metadata %struct.ssdm_int_sim** %this.addr, metadata !9351, metadata !DIExpression()), !dbg !9353
  %this1 = load %struct.ssdm_int_sim*, %struct.ssdm_int_sim** %this.addr, align 8
  %V = getelementptr inbounds %struct.ssdm_int_sim, %struct.ssdm_int_sim* %this1, i32 0, i32 0, !dbg !9354
  call void @_ZN10ap_privateILi32ELb1ELb1EEC2Ev(%class.ap_private* %V), !dbg !9354
  ret void, !dbg !9355
}

; Function Attrs: noinline nounwind optnone uwtable
define linkonce_odr void @_ZN10ap_privateILi32ELb1ELb1EEC2Ev(%class.ap_private* %this) unnamed_addr #4 comdat align 2 !dbg !9356 !prof !9343 {
entry:
  %this.addr = alloca %class.ap_private*, align 8
  store %class.ap_private* %this, %class.ap_private** %this.addr, align 8
  call void @llvm.dbg.declare(metadata %class.ap_private** %this.addr, metadata !9357, metadata !DIExpression()), !dbg !9359
  %this1 = load %class.ap_private*, %class.ap_private** %this.addr, align 8
  call void @_ZN10ap_privateILi32ELb1ELb1EE10set_canaryEv(%class.ap_private* %this1), !dbg !9360
  call void @_ZNV10ap_privateILi32ELb1ELb1EE15clearUnusedBitsEv(%class.ap_private* %this1), !dbg !9362
  call void @_ZN10ap_privateILi32ELb1ELb1EE12check_canaryEv(%class.ap_private* %this1), !dbg !9363
  ret void, !dbg !9364
}

; Function Attrs: noinline nounwind optnone uwtable
define linkonce_odr void @_ZN10ap_privateILi32ELb1ELb1EE10set_canaryEv(%class.ap_private* %this) #4 comdat align 2 !dbg !9365 !prof !9366 {
entry:
  %this.addr = alloca %class.ap_private*, align 8
  store %class.ap_private* %this, %class.ap_private** %this.addr, align 8
  call void @llvm.dbg.declare(metadata %class.ap_private** %this.addr, metadata !9367, metadata !DIExpression()), !dbg !9368
  %this1 = load %class.ap_private*, %class.ap_private** %this.addr, align 8
  ret void, !dbg !9369
}

; Function Attrs: noinline nounwind optnone uwtable
define linkonce_odr void @_ZNV10ap_privateILi32ELb1ELb1EE15clearUnusedBitsEv(%class.ap_private* %this) #4 comdat align 2 !dbg !701 !prof !9370 {
entry:
  %this.addr = alloca %class.ap_private*, align 8
  store %class.ap_private* %this, %class.ap_private** %this.addr, align 8
  call void @llvm.dbg.declare(metadata %class.ap_private** %this.addr, metadata !9371, metadata !DIExpression()), !dbg !9373
  %this1 = load %class.ap_private*, %class.ap_private** %this.addr, align 8
  %VAL = getelementptr inbounds %class.ap_private, %class.ap_private* %this1, i32 0, i32 0, !dbg !9374
  %0 = load volatile i32, i32* %VAL, align 4, !dbg !9374
  %conv = sext i32 %0 to i64, !dbg !9374
  %shl = shl i64 %conv, 32, !dbg !9375
  %shr = ashr i64 %shl, 32, !dbg !9376
  %conv2 = trunc i64 %shr to i32, !dbg !9377
  %VAL3 = getelementptr inbounds %class.ap_private, %class.ap_private* %this1, i32 0, i32 0, !dbg !9378
  store volatile i32 %conv2, i32* %VAL3, align 4, !dbg !9379
  ret void, !dbg !9380
}

; Function Attrs: noinline nounwind optnone uwtable
define linkonce_odr void @_ZN10ap_privateILi32ELb1ELb1EE12check_canaryEv(%class.ap_private* %this) #4 comdat align 2 !dbg !9381 !prof !9382 {
entry:
  %this.addr = alloca %class.ap_private*, align 8
  store %class.ap_private* %this, %class.ap_private** %this.addr, align 8
  call void @llvm.dbg.declare(metadata %class.ap_private** %this.addr, metadata !9383, metadata !DIExpression()), !dbg !9384
  %this1 = load %class.ap_private*, %class.ap_private** %this.addr, align 8
  ret void, !dbg !9385
}

; Function Attrs: noinline nounwind optnone uwtable
define linkonce_odr void @_ZN11ap_int_baseILi4ELb0EEC2Ev(%struct.ap_int_base.3* %this) unnamed_addr #4 comdat align 2 !dbg !9386 !prof !9387 {
entry:
  %this.addr = alloca %struct.ap_int_base.3*, align 8
  store %struct.ap_int_base.3* %this, %struct.ap_int_base.3** %this.addr, align 8
  call void @llvm.dbg.declare(metadata %struct.ap_int_base.3** %this.addr, metadata !9388, metadata !DIExpression()), !dbg !9390
  %this1 = load %struct.ap_int_base.3*, %struct.ap_int_base.3** %this.addr, align 8
  %0 = bitcast %struct.ap_int_base.3* %this1 to %struct.ssdm_int_sim.4*, !dbg !9391
  call void @_ZN12ssdm_int_simILi4ELb0EEC2Ev(%struct.ssdm_int_sim.4* %0), !dbg !9392
  ret void, !dbg !9393
}

; Function Attrs: noinline nounwind optnone uwtable
define linkonce_odr void @_ZN12ssdm_int_simILi4ELb0EEC2Ev(%struct.ssdm_int_sim.4* %this) unnamed_addr #4 comdat align 2 !dbg !9394 !prof !9387 {
entry:
  %this.addr = alloca %struct.ssdm_int_sim.4*, align 8
  store %struct.ssdm_int_sim.4* %this, %struct.ssdm_int_sim.4** %this.addr, align 8
  call void @llvm.dbg.declare(metadata %struct.ssdm_int_sim.4** %this.addr, metadata !9395, metadata !DIExpression()), !dbg !9397
  %this1 = load %struct.ssdm_int_sim.4*, %struct.ssdm_int_sim.4** %this.addr, align 8
  %V = getelementptr inbounds %struct.ssdm_int_sim.4, %struct.ssdm_int_sim.4* %this1, i32 0, i32 0, !dbg !9398
  call void @_ZN10ap_privateILi4ELb0ELb1EEC2Ev(%class.ap_private.5* %V), !dbg !9398
  ret void, !dbg !9399
}

; Function Attrs: noinline nounwind optnone uwtable
define linkonce_odr void @_ZN10ap_privateILi4ELb0ELb1EEC2Ev(%class.ap_private.5* %this) unnamed_addr #4 comdat align 2 !dbg !9400 !prof !9387 {
entry:
  %this.addr = alloca %class.ap_private.5*, align 8
  store %class.ap_private.5* %this, %class.ap_private.5** %this.addr, align 8
  call void @llvm.dbg.declare(metadata %class.ap_private.5** %this.addr, metadata !9401, metadata !DIExpression()), !dbg !9403
  %this1 = load %class.ap_private.5*, %class.ap_private.5** %this.addr, align 8
  call void @_ZN10ap_privateILi4ELb0ELb1EE10set_canaryEv(%class.ap_private.5* %this1), !dbg !9404
  call void @_ZNV10ap_privateILi4ELb0ELb1EE15clearUnusedBitsEv(%class.ap_private.5* %this1), !dbg !9406
  call void @_ZN10ap_privateILi4ELb0ELb1EE12check_canaryEv(%class.ap_private.5* %this1), !dbg !9407
  ret void, !dbg !9408
}

; Function Attrs: noinline nounwind optnone uwtable
define linkonce_odr void @_ZN10ap_privateILi4ELb0ELb1EE10set_canaryEv(%class.ap_private.5* %this) #4 comdat align 2 !dbg !9409 !prof !9410 {
entry:
  %this.addr = alloca %class.ap_private.5*, align 8
  store %class.ap_private.5* %this, %class.ap_private.5** %this.addr, align 8
  call void @llvm.dbg.declare(metadata %class.ap_private.5** %this.addr, metadata !9411, metadata !DIExpression()), !dbg !9412
  %this1 = load %class.ap_private.5*, %class.ap_private.5** %this.addr, align 8
  ret void, !dbg !9413
}

; Function Attrs: noinline nounwind optnone uwtable
define linkonce_odr void @_ZNV10ap_privateILi4ELb0ELb1EE15clearUnusedBitsEv(%class.ap_private.5* %this) #4 comdat align 2 !dbg !2598 !prof !9414 {
entry:
  %this.addr = alloca %class.ap_private.5*, align 8
  store %class.ap_private.5* %this, %class.ap_private.5** %this.addr, align 8
  call void @llvm.dbg.declare(metadata %class.ap_private.5** %this.addr, metadata !9415, metadata !DIExpression()), !dbg !9417
  %this1 = load %class.ap_private.5*, %class.ap_private.5** %this.addr, align 8
  %VAL = getelementptr inbounds %class.ap_private.5, %class.ap_private.5* %this1, i32 0, i32 0, !dbg !9418
  %0 = load volatile i8, i8* %VAL, align 1, !dbg !9418
  %conv = zext i8 %0 to i64, !dbg !9418
  %shl = shl i64 %conv, 60, !dbg !9419
  %shr = lshr i64 %shl, 60, !dbg !9420
  %conv2 = trunc i64 %shr to i8, !dbg !9421
  %VAL3 = getelementptr inbounds %class.ap_private.5, %class.ap_private.5* %this1, i32 0, i32 0, !dbg !9422
  store volatile i8 %conv2, i8* %VAL3, align 1, !dbg !9423
  ret void, !dbg !9424
}

; Function Attrs: noinline nounwind optnone uwtable
define linkonce_odr void @_ZN10ap_privateILi4ELb0ELb1EE12check_canaryEv(%class.ap_private.5* %this) #4 comdat align 2 !dbg !9425 !prof !9426 {
entry:
  %this.addr = alloca %class.ap_private.5*, align 8
  store %class.ap_private.5* %this, %class.ap_private.5** %this.addr, align 8
  call void @llvm.dbg.declare(metadata %class.ap_private.5** %this.addr, metadata !9427, metadata !DIExpression()), !dbg !9428
  %this1 = load %class.ap_private.5*, %class.ap_private.5** %this.addr, align 8
  ret void, !dbg !9429
}

; Function Attrs: noinline nounwind optnone uwtable
define linkonce_odr void @_ZN11ap_int_baseILi2ELb0EEC2Ev(%struct.ap_int_base.7* %this) unnamed_addr #4 comdat align 2 !dbg !9430 !prof !9431 {
entry:
  %this.addr = alloca %struct.ap_int_base.7*, align 8
  store %struct.ap_int_base.7* %this, %struct.ap_int_base.7** %this.addr, align 8
  call void @llvm.dbg.declare(metadata %struct.ap_int_base.7** %this.addr, metadata !9432, metadata !DIExpression()), !dbg !9434
  %this1 = load %struct.ap_int_base.7*, %struct.ap_int_base.7** %this.addr, align 8
  %0 = bitcast %struct.ap_int_base.7* %this1 to %struct.ssdm_int_sim.8*, !dbg !9435
  call void @_ZN12ssdm_int_simILi2ELb0EEC2Ev(%struct.ssdm_int_sim.8* %0), !dbg !9436
  ret void, !dbg !9437
}

; Function Attrs: noinline nounwind optnone uwtable
define linkonce_odr void @_ZN12ssdm_int_simILi2ELb0EEC2Ev(%struct.ssdm_int_sim.8* %this) unnamed_addr #4 comdat align 2 !dbg !9438 !prof !9431 {
entry:
  %this.addr = alloca %struct.ssdm_int_sim.8*, align 8
  store %struct.ssdm_int_sim.8* %this, %struct.ssdm_int_sim.8** %this.addr, align 8
  call void @llvm.dbg.declare(metadata %struct.ssdm_int_sim.8** %this.addr, metadata !9439, metadata !DIExpression()), !dbg !9441
  %this1 = load %struct.ssdm_int_sim.8*, %struct.ssdm_int_sim.8** %this.addr, align 8
  %V = getelementptr inbounds %struct.ssdm_int_sim.8, %struct.ssdm_int_sim.8* %this1, i32 0, i32 0, !dbg !9442
  call void @_ZN10ap_privateILi2ELb0ELb1EEC2Ev(%class.ap_private.9* %V), !dbg !9442
  ret void, !dbg !9443
}

; Function Attrs: noinline nounwind optnone uwtable
define linkonce_odr void @_ZN10ap_privateILi2ELb0ELb1EEC2Ev(%class.ap_private.9* %this) unnamed_addr #4 comdat align 2 !dbg !9444 !prof !9431 {
entry:
  %this.addr = alloca %class.ap_private.9*, align 8
  store %class.ap_private.9* %this, %class.ap_private.9** %this.addr, align 8
  call void @llvm.dbg.declare(metadata %class.ap_private.9** %this.addr, metadata !9445, metadata !DIExpression()), !dbg !9447
  %this1 = load %class.ap_private.9*, %class.ap_private.9** %this.addr, align 8
  call void @_ZN10ap_privateILi2ELb0ELb1EE10set_canaryEv(%class.ap_private.9* %this1), !dbg !9448
  call void @_ZNV10ap_privateILi2ELb0ELb1EE15clearUnusedBitsEv(%class.ap_private.9* %this1), !dbg !9450
  call void @_ZN10ap_privateILi2ELb0ELb1EE12check_canaryEv(%class.ap_private.9* %this1), !dbg !9451
  ret void, !dbg !9452
}

; Function Attrs: noinline nounwind optnone uwtable
define linkonce_odr void @_ZN10ap_privateILi2ELb0ELb1EE10set_canaryEv(%class.ap_private.9* %this) #4 comdat align 2 !dbg !9453 !prof !9454 {
entry:
  %this.addr = alloca %class.ap_private.9*, align 8
  store %class.ap_private.9* %this, %class.ap_private.9** %this.addr, align 8
  call void @llvm.dbg.declare(metadata %class.ap_private.9** %this.addr, metadata !9455, metadata !DIExpression()), !dbg !9456
  %this1 = load %class.ap_private.9*, %class.ap_private.9** %this.addr, align 8
  ret void, !dbg !9457
}

; Function Attrs: noinline nounwind optnone uwtable
define linkonce_odr void @_ZNV10ap_privateILi2ELb0ELb1EE15clearUnusedBitsEv(%class.ap_private.9* %this) #4 comdat align 2 !dbg !3033 !prof !9458 {
entry:
  %this.addr = alloca %class.ap_private.9*, align 8
  store %class.ap_private.9* %this, %class.ap_private.9** %this.addr, align 8
  call void @llvm.dbg.declare(metadata %class.ap_private.9** %this.addr, metadata !9459, metadata !DIExpression()), !dbg !9461
  %this1 = load %class.ap_private.9*, %class.ap_private.9** %this.addr, align 8
  %VAL = getelementptr inbounds %class.ap_private.9, %class.ap_private.9* %this1, i32 0, i32 0, !dbg !9462
  %0 = load volatile i8, i8* %VAL, align 1, !dbg !9462
  %conv = zext i8 %0 to i64, !dbg !9462
  %shl = shl i64 %conv, 62, !dbg !9463
  %shr = lshr i64 %shl, 62, !dbg !9464
  %conv2 = trunc i64 %shr to i8, !dbg !9465
  %VAL3 = getelementptr inbounds %class.ap_private.9, %class.ap_private.9* %this1, i32 0, i32 0, !dbg !9466
  store volatile i8 %conv2, i8* %VAL3, align 1, !dbg !9467
  ret void, !dbg !9468
}

; Function Attrs: noinline nounwind optnone uwtable
define linkonce_odr void @_ZN10ap_privateILi2ELb0ELb1EE12check_canaryEv(%class.ap_private.9* %this) #4 comdat align 2 !dbg !9469 !prof !9470 {
entry:
  %this.addr = alloca %class.ap_private.9*, align 8
  store %class.ap_private.9* %this, %class.ap_private.9** %this.addr, align 8
  call void @llvm.dbg.declare(metadata %class.ap_private.9** %this.addr, metadata !9471, metadata !DIExpression()), !dbg !9472
  %this1 = load %class.ap_private.9*, %class.ap_private.9** %this.addr, align 8
  ret void, !dbg !9473
}

; Function Attrs: noinline nounwind optnone uwtable
define linkonce_odr void @_ZN11ap_int_baseILi1ELb0EEC2Ev(%struct.ap_int_base.11* %this) unnamed_addr #4 comdat align 2 !dbg !9474 !prof !9431 {
entry:
  %this.addr = alloca %struct.ap_int_base.11*, align 8
  store %struct.ap_int_base.11* %this, %struct.ap_int_base.11** %this.addr, align 8
  call void @llvm.dbg.declare(metadata %struct.ap_int_base.11** %this.addr, metadata !9475, metadata !DIExpression()), !dbg !9477
  %this1 = load %struct.ap_int_base.11*, %struct.ap_int_base.11** %this.addr, align 8
  %0 = bitcast %struct.ap_int_base.11* %this1 to %struct.ssdm_int_sim.12*, !dbg !9478
  call void @_ZN12ssdm_int_simILi1ELb0EEC2Ev(%struct.ssdm_int_sim.12* %0), !dbg !9479
  ret void, !dbg !9480
}

; Function Attrs: noinline nounwind optnone uwtable
define linkonce_odr void @_ZN12ssdm_int_simILi1ELb0EEC2Ev(%struct.ssdm_int_sim.12* %this) unnamed_addr #4 comdat align 2 !dbg !9481 !prof !9431 {
entry:
  %this.addr = alloca %struct.ssdm_int_sim.12*, align 8
  store %struct.ssdm_int_sim.12* %this, %struct.ssdm_int_sim.12** %this.addr, align 8
  call void @llvm.dbg.declare(metadata %struct.ssdm_int_sim.12** %this.addr, metadata !9482, metadata !DIExpression()), !dbg !9484
  %this1 = load %struct.ssdm_int_sim.12*, %struct.ssdm_int_sim.12** %this.addr, align 8
  %V = getelementptr inbounds %struct.ssdm_int_sim.12, %struct.ssdm_int_sim.12* %this1, i32 0, i32 0, !dbg !9485
  call void @_ZN10ap_privateILi1ELb0ELb1EEC2Ev(%class.ap_private.13* %V), !dbg !9485
  ret void, !dbg !9486
}

; Function Attrs: noinline nounwind optnone uwtable
define linkonce_odr void @_ZN10ap_privateILi1ELb0ELb1EEC2Ev(%class.ap_private.13* %this) unnamed_addr #4 comdat align 2 !dbg !9487 !prof !9431 {
entry:
  %this.addr = alloca %class.ap_private.13*, align 8
  store %class.ap_private.13* %this, %class.ap_private.13** %this.addr, align 8
  call void @llvm.dbg.declare(metadata %class.ap_private.13** %this.addr, metadata !9488, metadata !DIExpression()), !dbg !9490
  %this1 = load %class.ap_private.13*, %class.ap_private.13** %this.addr, align 8
  call void @_ZN10ap_privateILi1ELb0ELb1EE10set_canaryEv(%class.ap_private.13* %this1), !dbg !9491
  call void @_ZNV10ap_privateILi1ELb0ELb1EE15clearUnusedBitsEv(%class.ap_private.13* %this1), !dbg !9493
  call void @_ZN10ap_privateILi1ELb0ELb1EE12check_canaryEv(%class.ap_private.13* %this1), !dbg !9494
  ret void, !dbg !9495
}

; Function Attrs: noinline nounwind optnone uwtable
define linkonce_odr void @_ZN10ap_privateILi1ELb0ELb1EE10set_canaryEv(%class.ap_private.13* %this) #4 comdat align 2 !dbg !9496 !prof !9454 {
entry:
  %this.addr = alloca %class.ap_private.13*, align 8
  store %class.ap_private.13* %this, %class.ap_private.13** %this.addr, align 8
  call void @llvm.dbg.declare(metadata %class.ap_private.13** %this.addr, metadata !9497, metadata !DIExpression()), !dbg !9498
  %this1 = load %class.ap_private.13*, %class.ap_private.13** %this.addr, align 8
  ret void, !dbg !9499
}

; Function Attrs: noinline nounwind optnone uwtable
define linkonce_odr void @_ZNV10ap_privateILi1ELb0ELb1EE15clearUnusedBitsEv(%class.ap_private.13* %this) #4 comdat align 2 !dbg !3464 !prof !9458 {
entry:
  %this.addr = alloca %class.ap_private.13*, align 8
  store %class.ap_private.13* %this, %class.ap_private.13** %this.addr, align 8
  call void @llvm.dbg.declare(metadata %class.ap_private.13** %this.addr, metadata !9500, metadata !DIExpression()), !dbg !9502
  %this1 = load %class.ap_private.13*, %class.ap_private.13** %this.addr, align 8
  %VAL = getelementptr inbounds %class.ap_private.13, %class.ap_private.13* %this1, i32 0, i32 0, !dbg !9503
  %0 = load volatile i8, i8* %VAL, align 1, !dbg !9503
  %conv = zext i8 %0 to i64, !dbg !9503
  %shl = shl i64 %conv, 63, !dbg !9504
  %shr = lshr i64 %shl, 63, !dbg !9505
  %conv2 = trunc i64 %shr to i8, !dbg !9506
  %VAL3 = getelementptr inbounds %class.ap_private.13, %class.ap_private.13* %this1, i32 0, i32 0, !dbg !9507
  store volatile i8 %conv2, i8* %VAL3, align 1, !dbg !9508
  ret void, !dbg !9509
}

; Function Attrs: noinline nounwind optnone uwtable
define linkonce_odr void @_ZN10ap_privateILi1ELb0ELb1EE12check_canaryEv(%class.ap_private.13* %this) #4 comdat align 2 !dbg !9510 !prof !9470 {
entry:
  %this.addr = alloca %class.ap_private.13*, align 8
  store %class.ap_private.13* %this, %class.ap_private.13** %this.addr, align 8
  call void @llvm.dbg.declare(metadata %class.ap_private.13** %this.addr, metadata !9511, metadata !DIExpression()), !dbg !9512
  %this1 = load %class.ap_private.13*, %class.ap_private.13** %this.addr, align 8
  ret void, !dbg !9513
}

; Function Attrs: noinline nounwind optnone uwtable
define linkonce_odr void @_ZN11ap_int_baseILi5ELb0EEC2Ev(%struct.ap_int_base.15* %this) unnamed_addr #4 comdat align 2 !dbg !9514 !prof !9431 {
entry:
  %this.addr = alloca %struct.ap_int_base.15*, align 8
  store %struct.ap_int_base.15* %this, %struct.ap_int_base.15** %this.addr, align 8
  call void @llvm.dbg.declare(metadata %struct.ap_int_base.15** %this.addr, metadata !9515, metadata !DIExpression()), !dbg !9517
  %this1 = load %struct.ap_int_base.15*, %struct.ap_int_base.15** %this.addr, align 8
  %0 = bitcast %struct.ap_int_base.15* %this1 to %struct.ssdm_int_sim.16*, !dbg !9518
  call void @_ZN12ssdm_int_simILi5ELb0EEC2Ev(%struct.ssdm_int_sim.16* %0), !dbg !9519
  ret void, !dbg !9520
}

; Function Attrs: noinline nounwind optnone uwtable
define linkonce_odr void @_ZN12ssdm_int_simILi5ELb0EEC2Ev(%struct.ssdm_int_sim.16* %this) unnamed_addr #4 comdat align 2 !dbg !9521 !prof !9431 {
entry:
  %this.addr = alloca %struct.ssdm_int_sim.16*, align 8
  store %struct.ssdm_int_sim.16* %this, %struct.ssdm_int_sim.16** %this.addr, align 8
  call void @llvm.dbg.declare(metadata %struct.ssdm_int_sim.16** %this.addr, metadata !9522, metadata !DIExpression()), !dbg !9524
  %this1 = load %struct.ssdm_int_sim.16*, %struct.ssdm_int_sim.16** %this.addr, align 8
  %V = getelementptr inbounds %struct.ssdm_int_sim.16, %struct.ssdm_int_sim.16* %this1, i32 0, i32 0, !dbg !9525
  call void @_ZN10ap_privateILi5ELb0ELb1EEC2Ev(%class.ap_private.17* %V), !dbg !9525
  ret void, !dbg !9526
}

; Function Attrs: noinline nounwind optnone uwtable
define linkonce_odr void @_ZN10ap_privateILi5ELb0ELb1EEC2Ev(%class.ap_private.17* %this) unnamed_addr #4 comdat align 2 !dbg !9527 !prof !9431 {
entry:
  %this.addr = alloca %class.ap_private.17*, align 8
  store %class.ap_private.17* %this, %class.ap_private.17** %this.addr, align 8
  call void @llvm.dbg.declare(metadata %class.ap_private.17** %this.addr, metadata !9528, metadata !DIExpression()), !dbg !9530
  %this1 = load %class.ap_private.17*, %class.ap_private.17** %this.addr, align 8
  call void @_ZN10ap_privateILi5ELb0ELb1EE10set_canaryEv(%class.ap_private.17* %this1), !dbg !9531
  call void @_ZNV10ap_privateILi5ELb0ELb1EE15clearUnusedBitsEv(%class.ap_private.17* %this1), !dbg !9533
  call void @_ZN10ap_privateILi5ELb0ELb1EE12check_canaryEv(%class.ap_private.17* %this1), !dbg !9534
  ret void, !dbg !9535
}

; Function Attrs: noinline nounwind optnone uwtable
define linkonce_odr void @_ZN10ap_privateILi5ELb0ELb1EE10set_canaryEv(%class.ap_private.17* %this) #4 comdat align 2 !dbg !9536 !prof !9454 {
entry:
  %this.addr = alloca %class.ap_private.17*, align 8
  store %class.ap_private.17* %this, %class.ap_private.17** %this.addr, align 8
  call void @llvm.dbg.declare(metadata %class.ap_private.17** %this.addr, metadata !9537, metadata !DIExpression()), !dbg !9538
  %this1 = load %class.ap_private.17*, %class.ap_private.17** %this.addr, align 8
  ret void, !dbg !9539
}

; Function Attrs: noinline nounwind optnone uwtable
define linkonce_odr void @_ZNV10ap_privateILi5ELb0ELb1EE15clearUnusedBitsEv(%class.ap_private.17* %this) #4 comdat align 2 !dbg !3894 !prof !9458 {
entry:
  %this.addr = alloca %class.ap_private.17*, align 8
  store %class.ap_private.17* %this, %class.ap_private.17** %this.addr, align 8
  call void @llvm.dbg.declare(metadata %class.ap_private.17** %this.addr, metadata !9540, metadata !DIExpression()), !dbg !9542
  %this1 = load %class.ap_private.17*, %class.ap_private.17** %this.addr, align 8
  %VAL = getelementptr inbounds %class.ap_private.17, %class.ap_private.17* %this1, i32 0, i32 0, !dbg !9543
  %0 = load volatile i8, i8* %VAL, align 1, !dbg !9543
  %conv = zext i8 %0 to i64, !dbg !9543
  %shl = shl i64 %conv, 59, !dbg !9544
  %shr = lshr i64 %shl, 59, !dbg !9545
  %conv2 = trunc i64 %shr to i8, !dbg !9546
  %VAL3 = getelementptr inbounds %class.ap_private.17, %class.ap_private.17* %this1, i32 0, i32 0, !dbg !9547
  store volatile i8 %conv2, i8* %VAL3, align 1, !dbg !9548
  ret void, !dbg !9549
}

; Function Attrs: noinline nounwind optnone uwtable
define linkonce_odr void @_ZN10ap_privateILi5ELb0ELb1EE12check_canaryEv(%class.ap_private.17* %this) #4 comdat align 2 !dbg !9550 !prof !9470 {
entry:
  %this.addr = alloca %class.ap_private.17*, align 8
  store %class.ap_private.17* %this, %class.ap_private.17** %this.addr, align 8
  call void @llvm.dbg.declare(metadata %class.ap_private.17** %this.addr, metadata !9551, metadata !DIExpression()), !dbg !9552
  %this1 = load %class.ap_private.17*, %class.ap_private.17** %this.addr, align 8
  ret void, !dbg !9553
}

; Function Attrs: noinline nounwind optnone uwtable
define linkonce_odr void @_ZN11ap_int_baseILi6ELb0EEC2Ev(%struct.ap_int_base.19* %this) unnamed_addr #4 comdat align 2 !dbg !9554 !prof !9431 {
entry:
  %this.addr = alloca %struct.ap_int_base.19*, align 8
  store %struct.ap_int_base.19* %this, %struct.ap_int_base.19** %this.addr, align 8
  call void @llvm.dbg.declare(metadata %struct.ap_int_base.19** %this.addr, metadata !9555, metadata !DIExpression()), !dbg !9557
  %this1 = load %struct.ap_int_base.19*, %struct.ap_int_base.19** %this.addr, align 8
  %0 = bitcast %struct.ap_int_base.19* %this1 to %struct.ssdm_int_sim.20*, !dbg !9558
  call void @_ZN12ssdm_int_simILi6ELb0EEC2Ev(%struct.ssdm_int_sim.20* %0), !dbg !9559
  ret void, !dbg !9560
}

; Function Attrs: noinline nounwind optnone uwtable
define linkonce_odr void @_ZN12ssdm_int_simILi6ELb0EEC2Ev(%struct.ssdm_int_sim.20* %this) unnamed_addr #4 comdat align 2 !dbg !9561 !prof !9431 {
entry:
  %this.addr = alloca %struct.ssdm_int_sim.20*, align 8
  store %struct.ssdm_int_sim.20* %this, %struct.ssdm_int_sim.20** %this.addr, align 8
  call void @llvm.dbg.declare(metadata %struct.ssdm_int_sim.20** %this.addr, metadata !9562, metadata !DIExpression()), !dbg !9564
  %this1 = load %struct.ssdm_int_sim.20*, %struct.ssdm_int_sim.20** %this.addr, align 8
  %V = getelementptr inbounds %struct.ssdm_int_sim.20, %struct.ssdm_int_sim.20* %this1, i32 0, i32 0, !dbg !9565
  call void @_ZN10ap_privateILi6ELb0ELb1EEC2Ev(%class.ap_private.21* %V), !dbg !9565
  ret void, !dbg !9566
}

; Function Attrs: noinline nounwind optnone uwtable
define linkonce_odr void @_ZN10ap_privateILi6ELb0ELb1EEC2Ev(%class.ap_private.21* %this) unnamed_addr #4 comdat align 2 !dbg !9567 !prof !9431 {
entry:
  %this.addr = alloca %class.ap_private.21*, align 8
  store %class.ap_private.21* %this, %class.ap_private.21** %this.addr, align 8
  call void @llvm.dbg.declare(metadata %class.ap_private.21** %this.addr, metadata !9568, metadata !DIExpression()), !dbg !9570
  %this1 = load %class.ap_private.21*, %class.ap_private.21** %this.addr, align 8
  call void @_ZN10ap_privateILi6ELb0ELb1EE10set_canaryEv(%class.ap_private.21* %this1), !dbg !9571
  call void @_ZNV10ap_privateILi6ELb0ELb1EE15clearUnusedBitsEv(%class.ap_private.21* %this1), !dbg !9573
  call void @_ZN10ap_privateILi6ELb0ELb1EE12check_canaryEv(%class.ap_private.21* %this1), !dbg !9574
  ret void, !dbg !9575
}

; Function Attrs: noinline nounwind optnone uwtable
define linkonce_odr void @_ZN10ap_privateILi6ELb0ELb1EE10set_canaryEv(%class.ap_private.21* %this) #4 comdat align 2 !dbg !9576 !prof !9454 {
entry:
  %this.addr = alloca %class.ap_private.21*, align 8
  store %class.ap_private.21* %this, %class.ap_private.21** %this.addr, align 8
  call void @llvm.dbg.declare(metadata %class.ap_private.21** %this.addr, metadata !9577, metadata !DIExpression()), !dbg !9578
  %this1 = load %class.ap_private.21*, %class.ap_private.21** %this.addr, align 8
  ret void, !dbg !9579
}

; Function Attrs: noinline nounwind optnone uwtable
define linkonce_odr void @_ZNV10ap_privateILi6ELb0ELb1EE15clearUnusedBitsEv(%class.ap_private.21* %this) #4 comdat align 2 !dbg !4324 !prof !9458 {
entry:
  %this.addr = alloca %class.ap_private.21*, align 8
  store %class.ap_private.21* %this, %class.ap_private.21** %this.addr, align 8
  call void @llvm.dbg.declare(metadata %class.ap_private.21** %this.addr, metadata !9580, metadata !DIExpression()), !dbg !9582
  %this1 = load %class.ap_private.21*, %class.ap_private.21** %this.addr, align 8
  %VAL = getelementptr inbounds %class.ap_private.21, %class.ap_private.21* %this1, i32 0, i32 0, !dbg !9583
  %0 = load volatile i8, i8* %VAL, align 1, !dbg !9583
  %conv = zext i8 %0 to i64, !dbg !9583
  %shl = shl i64 %conv, 58, !dbg !9584
  %shr = lshr i64 %shl, 58, !dbg !9585
  %conv2 = trunc i64 %shr to i8, !dbg !9586
  %VAL3 = getelementptr inbounds %class.ap_private.21, %class.ap_private.21* %this1, i32 0, i32 0, !dbg !9587
  store volatile i8 %conv2, i8* %VAL3, align 1, !dbg !9588
  ret void, !dbg !9589
}

; Function Attrs: noinline nounwind optnone uwtable
define linkonce_odr void @_ZN10ap_privateILi6ELb0ELb1EE12check_canaryEv(%class.ap_private.21* %this) #4 comdat align 2 !dbg !9590 !prof !9470 {
entry:
  %this.addr = alloca %class.ap_private.21*, align 8
  store %class.ap_private.21* %this, %class.ap_private.21** %this.addr, align 8
  call void @llvm.dbg.declare(metadata %class.ap_private.21** %this.addr, metadata !9591, metadata !DIExpression()), !dbg !9592
  %this1 = load %class.ap_private.21*, %class.ap_private.21** %this.addr, align 8
  ret void, !dbg !9593
}

; Function Attrs: noinline nounwind optnone uwtable
define linkonce_odr void @_ZN11ap_int_baseILi32ELb1EED2Ev(%struct.ap_int_base* %this) unnamed_addr #4 comdat align 2 !dbg !9594 {
entry:
  %this.addr = alloca %struct.ap_int_base*, align 8
  store %struct.ap_int_base* %this, %struct.ap_int_base** %this.addr, align 8
  call void @llvm.dbg.declare(metadata %struct.ap_int_base** %this.addr, metadata !9596, metadata !DIExpression()), !dbg !9597
  %this1 = load %struct.ap_int_base*, %struct.ap_int_base** %this.addr, align 8
  %0 = bitcast %struct.ap_int_base* %this1 to %struct.ssdm_int_sim*, !dbg !9598
  call void @_ZN12ssdm_int_simILi32ELb1EED2Ev(%struct.ssdm_int_sim* %0) #3, !dbg !9598
  ret void, !dbg !9600
}

; Function Attrs: noinline nounwind optnone uwtable
define linkonce_odr void @_ZN12ssdm_int_simILi32ELb1EED2Ev(%struct.ssdm_int_sim* %this) unnamed_addr #4 comdat align 2 !dbg !9601 {
entry:
  %this.addr = alloca %struct.ssdm_int_sim*, align 8
  store %struct.ssdm_int_sim* %this, %struct.ssdm_int_sim** %this.addr, align 8
  call void @llvm.dbg.declare(metadata %struct.ssdm_int_sim** %this.addr, metadata !9603, metadata !DIExpression()), !dbg !9604
  %this1 = load %struct.ssdm_int_sim*, %struct.ssdm_int_sim** %this.addr, align 8
  %V = getelementptr inbounds %struct.ssdm_int_sim, %struct.ssdm_int_sim* %this1, i32 0, i32 0, !dbg !9605
  call void @_ZN10ap_privateILi32ELb1ELb1EED2Ev(%class.ap_private* %V) #3, !dbg !9605
  ret void, !dbg !9607
}

; Function Attrs: noinline nounwind optnone uwtable
define linkonce_odr void @_ZN10ap_privateILi32ELb1ELb1EED2Ev(%class.ap_private* %this) unnamed_addr #4 comdat align 2 !dbg !9608 !prof !9609 {
entry:
  %this.addr = alloca %class.ap_private*, align 8
  store %class.ap_private* %this, %class.ap_private** %this.addr, align 8
  call void @llvm.dbg.declare(metadata %class.ap_private** %this.addr, metadata !9610, metadata !DIExpression()), !dbg !9611
  %this1 = load %class.ap_private*, %class.ap_private** %this.addr, align 8
  call void @_ZN10ap_privateILi32ELb1ELb1EE12check_canaryEv(%class.ap_private* %this1), !dbg !9612
  ret void, !dbg !9614
}

; Function Attrs: noinline nounwind optnone uwtable
define linkonce_odr void @_ZN11ap_int_baseILi4ELb0EED2Ev(%struct.ap_int_base.3* %this) unnamed_addr #4 comdat align 2 !dbg !9615 {
entry:
  %this.addr = alloca %struct.ap_int_base.3*, align 8
  store %struct.ap_int_base.3* %this, %struct.ap_int_base.3** %this.addr, align 8
  call void @llvm.dbg.declare(metadata %struct.ap_int_base.3** %this.addr, metadata !9617, metadata !DIExpression()), !dbg !9618
  %this1 = load %struct.ap_int_base.3*, %struct.ap_int_base.3** %this.addr, align 8
  %0 = bitcast %struct.ap_int_base.3* %this1 to %struct.ssdm_int_sim.4*, !dbg !9619
  call void @_ZN12ssdm_int_simILi4ELb0EED2Ev(%struct.ssdm_int_sim.4* %0) #3, !dbg !9619
  ret void, !dbg !9621
}

; Function Attrs: noinline nounwind optnone uwtable
define linkonce_odr void @_ZN12ssdm_int_simILi4ELb0EED2Ev(%struct.ssdm_int_sim.4* %this) unnamed_addr #4 comdat align 2 !dbg !9622 {
entry:
  %this.addr = alloca %struct.ssdm_int_sim.4*, align 8
  store %struct.ssdm_int_sim.4* %this, %struct.ssdm_int_sim.4** %this.addr, align 8
  call void @llvm.dbg.declare(metadata %struct.ssdm_int_sim.4** %this.addr, metadata !9624, metadata !DIExpression()), !dbg !9625
  %this1 = load %struct.ssdm_int_sim.4*, %struct.ssdm_int_sim.4** %this.addr, align 8
  %V = getelementptr inbounds %struct.ssdm_int_sim.4, %struct.ssdm_int_sim.4* %this1, i32 0, i32 0, !dbg !9626
  call void @_ZN10ap_privateILi4ELb0ELb1EED2Ev(%class.ap_private.5* %V) #3, !dbg !9626
  ret void, !dbg !9628
}

; Function Attrs: noinline nounwind optnone uwtable
define linkonce_odr void @_ZN10ap_privateILi4ELb0ELb1EED2Ev(%class.ap_private.5* %this) unnamed_addr #4 comdat align 2 !dbg !9629 !prof !9366 {
entry:
  %this.addr = alloca %class.ap_private.5*, align 8
  store %class.ap_private.5* %this, %class.ap_private.5** %this.addr, align 8
  call void @llvm.dbg.declare(metadata %class.ap_private.5** %this.addr, metadata !9630, metadata !DIExpression()), !dbg !9631
  %this1 = load %class.ap_private.5*, %class.ap_private.5** %this.addr, align 8
  call void @_ZN10ap_privateILi4ELb0ELb1EE12check_canaryEv(%class.ap_private.5* %this1), !dbg !9632
  ret void, !dbg !9634
}

; Function Attrs: noinline nounwind optnone uwtable
define linkonce_odr void @_ZN11ap_int_baseILi2ELb0EED2Ev(%struct.ap_int_base.7* %this) unnamed_addr #4 comdat align 2 !dbg !9635 {
entry:
  %this.addr = alloca %struct.ap_int_base.7*, align 8
  store %struct.ap_int_base.7* %this, %struct.ap_int_base.7** %this.addr, align 8
  call void @llvm.dbg.declare(metadata %struct.ap_int_base.7** %this.addr, metadata !9637, metadata !DIExpression()), !dbg !9638
  %this1 = load %struct.ap_int_base.7*, %struct.ap_int_base.7** %this.addr, align 8
  %0 = bitcast %struct.ap_int_base.7* %this1 to %struct.ssdm_int_sim.8*, !dbg !9639
  call void @_ZN12ssdm_int_simILi2ELb0EED2Ev(%struct.ssdm_int_sim.8* %0) #3, !dbg !9639
  ret void, !dbg !9641
}

; Function Attrs: noinline nounwind optnone uwtable
define linkonce_odr void @_ZN12ssdm_int_simILi2ELb0EED2Ev(%struct.ssdm_int_sim.8* %this) unnamed_addr #4 comdat align 2 !dbg !9642 {
entry:
  %this.addr = alloca %struct.ssdm_int_sim.8*, align 8
  store %struct.ssdm_int_sim.8* %this, %struct.ssdm_int_sim.8** %this.addr, align 8
  call void @llvm.dbg.declare(metadata %struct.ssdm_int_sim.8** %this.addr, metadata !9644, metadata !DIExpression()), !dbg !9645
  %this1 = load %struct.ssdm_int_sim.8*, %struct.ssdm_int_sim.8** %this.addr, align 8
  %V = getelementptr inbounds %struct.ssdm_int_sim.8, %struct.ssdm_int_sim.8* %this1, i32 0, i32 0, !dbg !9646
  call void @_ZN10ap_privateILi2ELb0ELb1EED2Ev(%class.ap_private.9* %V) #3, !dbg !9646
  ret void, !dbg !9648
}

; Function Attrs: noinline nounwind optnone uwtable
define linkonce_odr void @_ZN10ap_privateILi2ELb0ELb1EED2Ev(%class.ap_private.9* %this) unnamed_addr #4 comdat align 2 !dbg !9649 !prof !9650 {
entry:
  %this.addr = alloca %class.ap_private.9*, align 8
  store %class.ap_private.9* %this, %class.ap_private.9** %this.addr, align 8
  call void @llvm.dbg.declare(metadata %class.ap_private.9** %this.addr, metadata !9651, metadata !DIExpression()), !dbg !9652
  %this1 = load %class.ap_private.9*, %class.ap_private.9** %this.addr, align 8
  call void @_ZN10ap_privateILi2ELb0ELb1EE12check_canaryEv(%class.ap_private.9* %this1), !dbg !9653
  ret void, !dbg !9655
}

; Function Attrs: noinline nounwind optnone uwtable
define linkonce_odr void @_ZN11ap_int_baseILi1ELb0EED2Ev(%struct.ap_int_base.11* %this) unnamed_addr #4 comdat align 2 !dbg !9656 {
entry:
  %this.addr = alloca %struct.ap_int_base.11*, align 8
  store %struct.ap_int_base.11* %this, %struct.ap_int_base.11** %this.addr, align 8
  call void @llvm.dbg.declare(metadata %struct.ap_int_base.11** %this.addr, metadata !9658, metadata !DIExpression()), !dbg !9659
  %this1 = load %struct.ap_int_base.11*, %struct.ap_int_base.11** %this.addr, align 8
  %0 = bitcast %struct.ap_int_base.11* %this1 to %struct.ssdm_int_sim.12*, !dbg !9660
  call void @_ZN12ssdm_int_simILi1ELb0EED2Ev(%struct.ssdm_int_sim.12* %0) #3, !dbg !9660
  ret void, !dbg !9662
}

; Function Attrs: noinline nounwind optnone uwtable
define linkonce_odr void @_ZN12ssdm_int_simILi1ELb0EED2Ev(%struct.ssdm_int_sim.12* %this) unnamed_addr #4 comdat align 2 !dbg !9663 {
entry:
  %this.addr = alloca %struct.ssdm_int_sim.12*, align 8
  store %struct.ssdm_int_sim.12* %this, %struct.ssdm_int_sim.12** %this.addr, align 8
  call void @llvm.dbg.declare(metadata %struct.ssdm_int_sim.12** %this.addr, metadata !9665, metadata !DIExpression()), !dbg !9666
  %this1 = load %struct.ssdm_int_sim.12*, %struct.ssdm_int_sim.12** %this.addr, align 8
  %V = getelementptr inbounds %struct.ssdm_int_sim.12, %struct.ssdm_int_sim.12* %this1, i32 0, i32 0, !dbg !9667
  call void @_ZN10ap_privateILi1ELb0ELb1EED2Ev(%class.ap_private.13* %V) #3, !dbg !9667
  ret void, !dbg !9669
}

; Function Attrs: noinline nounwind optnone uwtable
define linkonce_odr void @_ZN10ap_privateILi1ELb0ELb1EED2Ev(%class.ap_private.13* %this) unnamed_addr #4 comdat align 2 !dbg !9670 !prof !9650 {
entry:
  %this.addr = alloca %class.ap_private.13*, align 8
  store %class.ap_private.13* %this, %class.ap_private.13** %this.addr, align 8
  call void @llvm.dbg.declare(metadata %class.ap_private.13** %this.addr, metadata !9671, metadata !DIExpression()), !dbg !9672
  %this1 = load %class.ap_private.13*, %class.ap_private.13** %this.addr, align 8
  call void @_ZN10ap_privateILi1ELb0ELb1EE12check_canaryEv(%class.ap_private.13* %this1), !dbg !9673
  ret void, !dbg !9675
}

; Function Attrs: noinline nounwind optnone uwtable
define linkonce_odr void @_ZN11ap_int_baseILi5ELb0EED2Ev(%struct.ap_int_base.15* %this) unnamed_addr #4 comdat align 2 !dbg !9676 {
entry:
  %this.addr = alloca %struct.ap_int_base.15*, align 8
  store %struct.ap_int_base.15* %this, %struct.ap_int_base.15** %this.addr, align 8
  call void @llvm.dbg.declare(metadata %struct.ap_int_base.15** %this.addr, metadata !9678, metadata !DIExpression()), !dbg !9679
  %this1 = load %struct.ap_int_base.15*, %struct.ap_int_base.15** %this.addr, align 8
  %0 = bitcast %struct.ap_int_base.15* %this1 to %struct.ssdm_int_sim.16*, !dbg !9680
  call void @_ZN12ssdm_int_simILi5ELb0EED2Ev(%struct.ssdm_int_sim.16* %0) #3, !dbg !9680
  ret void, !dbg !9682
}

; Function Attrs: noinline nounwind optnone uwtable
define linkonce_odr void @_ZN12ssdm_int_simILi5ELb0EED2Ev(%struct.ssdm_int_sim.16* %this) unnamed_addr #4 comdat align 2 !dbg !9683 {
entry:
  %this.addr = alloca %struct.ssdm_int_sim.16*, align 8
  store %struct.ssdm_int_sim.16* %this, %struct.ssdm_int_sim.16** %this.addr, align 8
  call void @llvm.dbg.declare(metadata %struct.ssdm_int_sim.16** %this.addr, metadata !9685, metadata !DIExpression()), !dbg !9686
  %this1 = load %struct.ssdm_int_sim.16*, %struct.ssdm_int_sim.16** %this.addr, align 8
  %V = getelementptr inbounds %struct.ssdm_int_sim.16, %struct.ssdm_int_sim.16* %this1, i32 0, i32 0, !dbg !9687
  call void @_ZN10ap_privateILi5ELb0ELb1EED2Ev(%class.ap_private.17* %V) #3, !dbg !9687
  ret void, !dbg !9689
}

; Function Attrs: noinline nounwind optnone uwtable
define linkonce_odr void @_ZN10ap_privateILi5ELb0ELb1EED2Ev(%class.ap_private.17* %this) unnamed_addr #4 comdat align 2 !dbg !9690 !prof !9650 {
entry:
  %this.addr = alloca %class.ap_private.17*, align 8
  store %class.ap_private.17* %this, %class.ap_private.17** %this.addr, align 8
  call void @llvm.dbg.declare(metadata %class.ap_private.17** %this.addr, metadata !9691, metadata !DIExpression()), !dbg !9692
  %this1 = load %class.ap_private.17*, %class.ap_private.17** %this.addr, align 8
  call void @_ZN10ap_privateILi5ELb0ELb1EE12check_canaryEv(%class.ap_private.17* %this1), !dbg !9693
  ret void, !dbg !9695
}

; Function Attrs: noinline nounwind optnone uwtable
define linkonce_odr void @_ZN11ap_int_baseILi6ELb0EED2Ev(%struct.ap_int_base.19* %this) unnamed_addr #4 comdat align 2 !dbg !9696 {
entry:
  %this.addr = alloca %struct.ap_int_base.19*, align 8
  store %struct.ap_int_base.19* %this, %struct.ap_int_base.19** %this.addr, align 8
  call void @llvm.dbg.declare(metadata %struct.ap_int_base.19** %this.addr, metadata !9698, metadata !DIExpression()), !dbg !9699
  %this1 = load %struct.ap_int_base.19*, %struct.ap_int_base.19** %this.addr, align 8
  %0 = bitcast %struct.ap_int_base.19* %this1 to %struct.ssdm_int_sim.20*, !dbg !9700
  call void @_ZN12ssdm_int_simILi6ELb0EED2Ev(%struct.ssdm_int_sim.20* %0) #3, !dbg !9700
  ret void, !dbg !9702
}

; Function Attrs: noinline nounwind optnone uwtable
define linkonce_odr void @_ZN12ssdm_int_simILi6ELb0EED2Ev(%struct.ssdm_int_sim.20* %this) unnamed_addr #4 comdat align 2 !dbg !9703 {
entry:
  %this.addr = alloca %struct.ssdm_int_sim.20*, align 8
  store %struct.ssdm_int_sim.20* %this, %struct.ssdm_int_sim.20** %this.addr, align 8
  call void @llvm.dbg.declare(metadata %struct.ssdm_int_sim.20** %this.addr, metadata !9705, metadata !DIExpression()), !dbg !9706
  %this1 = load %struct.ssdm_int_sim.20*, %struct.ssdm_int_sim.20** %this.addr, align 8
  %V = getelementptr inbounds %struct.ssdm_int_sim.20, %struct.ssdm_int_sim.20* %this1, i32 0, i32 0, !dbg !9707
  call void @_ZN10ap_privateILi6ELb0ELb1EED2Ev(%class.ap_private.21* %V) #3, !dbg !9707
  ret void, !dbg !9709
}

; Function Attrs: noinline nounwind optnone uwtable
define linkonce_odr void @_ZN10ap_privateILi6ELb0ELb1EED2Ev(%class.ap_private.21* %this) unnamed_addr #4 comdat align 2 !dbg !9710 !prof !9650 {
entry:
  %this.addr = alloca %class.ap_private.21*, align 8
  store %class.ap_private.21* %this, %class.ap_private.21** %this.addr, align 8
  call void @llvm.dbg.declare(metadata %class.ap_private.21** %this.addr, metadata !9711, metadata !DIExpression()), !dbg !9712
  %this1 = load %class.ap_private.21*, %class.ap_private.21** %this.addr, align 8
  call void @_ZN10ap_privateILi6ELb0ELb1EE12check_canaryEv(%class.ap_private.21* %this1), !dbg !9713
  ret void, !dbg !9715
}

; Function Attrs: nounwind
declare void @_ZNSt7__cxx1112basic_stringIcSt11char_traitsIcESaIcEEC1Ev(%"class.std::__cxx11::basic_string"*) unnamed_addr #2

; Function Attrs: noinline nounwind optnone uwtable
define linkonce_odr void @_ZNSt5dequeIiSaIiEEC2Ev(%"class.std::deque.23"* %this) unnamed_addr #4 comdat align 2 !dbg !9716 !prof !8748 {
entry:
  %this.addr = alloca %"class.std::deque.23"*, align 8
  store %"class.std::deque.23"* %this, %"class.std::deque.23"** %this.addr, align 8
  call void @llvm.dbg.declare(metadata %"class.std::deque.23"** %this.addr, metadata !9717, metadata !DIExpression()), !dbg !9719
  %this1 = load %"class.std::deque.23"*, %"class.std::deque.23"** %this.addr, align 8
  %0 = bitcast %"class.std::deque.23"* %this1 to %"class.std::_Deque_base.24"*, !dbg !9720
  call void @_ZNSt11_Deque_baseIiSaIiEEC2Ev(%"class.std::_Deque_base.24"* %0), !dbg !9721
  ret void, !dbg !9722
}

; Function Attrs: noinline nounwind optnone uwtable
define linkonce_odr i32 @_ZStorSt13_Ios_OpenmodeS_(i32 %__a, i32 %__b) #4 comdat !dbg !9723 !prof !9726 {
entry:
  %__a.addr = alloca i32, align 4
  %__b.addr = alloca i32, align 4
  store i32 %__a, i32* %__a.addr, align 4
  call void @llvm.dbg.declare(metadata i32* %__a.addr, metadata !9727, metadata !DIExpression()), !dbg !9728
  store i32 %__b, i32* %__b.addr, align 4
  call void @llvm.dbg.declare(metadata i32* %__b.addr, metadata !9729, metadata !DIExpression()), !dbg !9730
  %0 = load i32, i32* %__a.addr, align 4, !dbg !9731
  %1 = load i32, i32* %__b.addr, align 4, !dbg !9732
  %or = or i32 %0, %1, !dbg !9733
  ret i32 %or, !dbg !9734
}

declare void @_ZNSt7__cxx1118basic_stringstreamIcSt11char_traitsIcESaIcEEC1ESt13_Ios_Openmode(%"class.std::__cxx11::basic_stringstream"*, i32) unnamed_addr #1

declare i8* @__cxa_demangle(i8*, i8*, i64*, i32*) #1

declare void @__cxa_bad_typeid()

; Function Attrs: noinline nounwind optnone uwtable
define linkonce_odr i8* @_ZNKSt9type_info4nameEv(%"class.std::type_info"* %this) #4 comdat align 2 !dbg !9735 !prof !9726 {
entry:
  %this.addr = alloca %"class.std::type_info"*, align 8
  store %"class.std::type_info"* %this, %"class.std::type_info"** %this.addr, align 8
  call void @llvm.dbg.declare(metadata %"class.std::type_info"** %this.addr, metadata !9741, metadata !DIExpression()), !dbg !9742
  %this1 = load %"class.std::type_info"*, %"class.std::type_info"** %this.addr, align 8
  %__name = getelementptr inbounds %"class.std::type_info", %"class.std::type_info"* %this1, i32 0, i32 1, !dbg !9743
  %0 = load i8*, i8** %__name, align 8, !dbg !9743
  %arrayidx = getelementptr inbounds i8, i8* %0, i64 0, !dbg !9743
  %1 = load i8, i8* %arrayidx, align 1, !dbg !9743
  %conv = sext i8 %1 to i32, !dbg !9743
  %cmp = icmp eq i32 %conv, 42, !dbg !9744
  br i1 %cmp, label %cond.true, label %cond.false, !dbg !9743, !prof !9745

cond.true:                                        ; preds = %entry
  %__name2 = getelementptr inbounds %"class.std::type_info", %"class.std::type_info"* %this1, i32 0, i32 1, !dbg !9746
  %2 = load i8*, i8** %__name2, align 8, !dbg !9746
  %add.ptr = getelementptr inbounds i8, i8* %2, i64 1, !dbg !9747
  br label %cond.end, !dbg !9743

cond.false:                                       ; preds = %entry
  %__name3 = getelementptr inbounds %"class.std::type_info", %"class.std::type_info"* %this1, i32 0, i32 1, !dbg !9748
  %3 = load i8*, i8** %__name3, align 8, !dbg !9748
  br label %cond.end, !dbg !9743

cond.end:                                         ; preds = %cond.false, %cond.true
  %cond = phi i8* [ %add.ptr, %cond.true ], [ %3, %cond.false ], !dbg !9743
  ret i8* %cond, !dbg !9749
}

declare dereferenceable(32) %"class.std::__cxx11::basic_string"* @_ZNSt7__cxx1112basic_stringIcSt11char_traitsIcESaIcEEaSEPKc(%"class.std::__cxx11::basic_string"*, i8*) #1

; Function Attrs: nounwind
declare void @free(i8*) #2

declare dereferenceable(272) %"class.std::basic_ostream"* @_ZNSolsEj(%"class.std::basic_ostream"*, i32) #1

; Function Attrs: noinline nounwind optnone uwtable
define linkonce_odr void @_ZStplIcSt11char_traitsIcESaIcEENSt7__cxx1112basic_stringIT_T0_T1_EEPKS5_OS8_(%"class.std::__cxx11::basic_string"* noalias sret %agg.result, i8* %__lhs, %"class.std::__cxx11::basic_string"* dereferenceable(32) %__rhs) #4 comdat !dbg !9750 !prof !9726 {
entry:
  %__lhs.addr = alloca i8*, align 8
  %__rhs.addr = alloca %"class.std::__cxx11::basic_string"*, align 8
  store i8* %__lhs, i8** %__lhs.addr, align 8
  call void @llvm.dbg.declare(metadata i8** %__lhs.addr, metadata !9811, metadata !DIExpression()), !dbg !9812
  store %"class.std::__cxx11::basic_string"* %__rhs, %"class.std::__cxx11::basic_string"** %__rhs.addr, align 8
  call void @llvm.dbg.declare(metadata %"class.std::__cxx11::basic_string"** %__rhs.addr, metadata !9813, metadata !DIExpression()), !dbg !9814
  %0 = load %"class.std::__cxx11::basic_string"*, %"class.std::__cxx11::basic_string"** %__rhs.addr, align 8, !dbg !9815
  %1 = load i8*, i8** %__lhs.addr, align 8, !dbg !9816
  %call = call dereferenceable(32) %"class.std::__cxx11::basic_string"* @_ZNSt7__cxx1112basic_stringIcSt11char_traitsIcESaIcEE6insertEmPKc(%"class.std::__cxx11::basic_string"* %0, i64 0, i8* %1), !dbg !9817
  %call1 = call dereferenceable(32) %"class.std::__cxx11::basic_string"* @_ZSt4moveIRNSt7__cxx1112basic_stringIcSt11char_traitsIcESaIcEEEEONSt16remove_referenceIT_E4typeEOS8_(%"class.std::__cxx11::basic_string"* dereferenceable(32) %call) #3, !dbg !9818
  call void @_ZNSt7__cxx1112basic_stringIcSt11char_traitsIcESaIcEEC1EOS4_(%"class.std::__cxx11::basic_string"* %agg.result, %"class.std::__cxx11::basic_string"* dereferenceable(32) %call1) #3, !dbg !9818
  ret void, !dbg !9819
}

declare void @_ZNKSt7__cxx1118basic_stringstreamIcSt11char_traitsIcESaIcEE3strEv(%"class.std::__cxx11::basic_string"* sret, %"class.std::__cxx11::basic_stringstream"*) #1

declare dereferenceable(32) %"class.std::__cxx11::basic_string"* @_ZNSt7__cxx1112basic_stringIcSt11char_traitsIcESaIcEEpLERKS4_(%"class.std::__cxx11::basic_string"*, %"class.std::__cxx11::basic_string"* dereferenceable(32)) #1

; Function Attrs: nounwind
declare void @_ZNSt7__cxx1112basic_stringIcSt11char_traitsIcESaIcEED1Ev(%"class.std::__cxx11::basic_string"*) unnamed_addr #2

; Function Attrs: nounwind
declare void @_ZNSt7__cxx1118basic_stringstreamIcSt11char_traitsIcESaIcEED1Ev(%"class.std::__cxx11::basic_stringstream"*) unnamed_addr #2

; Function Attrs: noinline nounwind optnone uwtable
define linkonce_odr void @_ZN3hls6streamIiLi0EED0Ev(%"class.hls::stream.22"* %this) unnamed_addr #4 comdat align 2 !dbg !9820 {
entry:
  %this.addr = alloca %"class.hls::stream.22"*, align 8
  store %"class.hls::stream.22"* %this, %"class.hls::stream.22"** %this.addr, align 8
  call void @llvm.dbg.declare(metadata %"class.hls::stream.22"** %this.addr, metadata !9821, metadata !DIExpression()), !dbg !9822
  %this1 = load %"class.hls::stream.22"*, %"class.hls::stream.22"** %this.addr, align 8
  call void @_ZN3hls6streamIiLi0EED2Ev(%"class.hls::stream.22"* %this1) #3, !dbg !9823
  %0 = bitcast %"class.hls::stream.22"* %this1 to i8*, !dbg !9823
  call void @_ZdlPv(i8* %0) #11, !dbg !9823
  ret void, !dbg !9824
}

; Function Attrs: noinline nounwind optnone uwtable
define linkonce_odr void @_ZNSt11_Deque_baseIiSaIiEEC2Ev(%"class.std::_Deque_base.24"* %this) unnamed_addr #4 comdat align 2 !dbg !9825 !prof !8748 {
entry:
  %this.addr = alloca %"class.std::_Deque_base.24"*, align 8
  store %"class.std::_Deque_base.24"* %this, %"class.std::_Deque_base.24"** %this.addr, align 8
  call void @llvm.dbg.declare(metadata %"class.std::_Deque_base.24"** %this.addr, metadata !9826, metadata !DIExpression()), !dbg !9828
  %this1 = load %"class.std::_Deque_base.24"*, %"class.std::_Deque_base.24"** %this.addr, align 8
  %_M_impl = getelementptr inbounds %"class.std::_Deque_base.24", %"class.std::_Deque_base.24"* %this1, i32 0, i32 0, !dbg !9829
  call void @_ZNSt11_Deque_baseIiSaIiEE11_Deque_implC2Ev(%"struct.std::_Deque_base<int, std::allocator<int> >::_Deque_impl"* %_M_impl), !dbg !9829
  call void @_ZNSt11_Deque_baseIiSaIiEE17_M_initialize_mapEm(%"class.std::_Deque_base.24"* %this1, i64 0), !dbg !9830
  ret void, !dbg !9832
}

; Function Attrs: noinline nounwind optnone uwtable
define linkonce_odr void @_ZNSt11_Deque_baseIiSaIiEE11_Deque_implC2Ev(%"struct.std::_Deque_base<int, std::allocator<int> >::_Deque_impl"* %this) unnamed_addr #4 comdat align 2 !dbg !9833 !prof !8748 {
entry:
  %this.addr = alloca %"struct.std::_Deque_base<int, std::allocator<int> >::_Deque_impl"*, align 8
  store %"struct.std::_Deque_base<int, std::allocator<int> >::_Deque_impl"* %this, %"struct.std::_Deque_base<int, std::allocator<int> >::_Deque_impl"** %this.addr, align 8
  call void @llvm.dbg.declare(metadata %"struct.std::_Deque_base<int, std::allocator<int> >::_Deque_impl"** %this.addr, metadata !9834, metadata !DIExpression()), !dbg !9836
  %this1 = load %"struct.std::_Deque_base<int, std::allocator<int> >::_Deque_impl"*, %"struct.std::_Deque_base<int, std::allocator<int> >::_Deque_impl"** %this.addr, align 8
  %0 = bitcast %"struct.std::_Deque_base<int, std::allocator<int> >::_Deque_impl"* %this1 to %"class.std::allocator.25"*, !dbg !9837
  call void @_ZNSaIiEC2Ev(%"class.std::allocator.25"* %0) #3, !dbg !9838
  %_M_map = getelementptr inbounds %"struct.std::_Deque_base<int, std::allocator<int> >::_Deque_impl", %"struct.std::_Deque_base<int, std::allocator<int> >::_Deque_impl"* %this1, i32 0, i32 0, !dbg !9839
  store i32** null, i32*** %_M_map, align 8, !dbg !9839
  %_M_map_size = getelementptr inbounds %"struct.std::_Deque_base<int, std::allocator<int> >::_Deque_impl", %"struct.std::_Deque_base<int, std::allocator<int> >::_Deque_impl"* %this1, i32 0, i32 1, !dbg !9840
  store i64 0, i64* %_M_map_size, align 8, !dbg !9840
  %_M_start = getelementptr inbounds %"struct.std::_Deque_base<int, std::allocator<int> >::_Deque_impl", %"struct.std::_Deque_base<int, std::allocator<int> >::_Deque_impl"* %this1, i32 0, i32 2, !dbg !9841
  call void @_ZNSt15_Deque_iteratorIiRiPiEC2Ev(%"struct.std::_Deque_iterator.28"* %_M_start) #3, !dbg !9841
  %_M_finish = getelementptr inbounds %"struct.std::_Deque_base<int, std::allocator<int> >::_Deque_impl", %"struct.std::_Deque_base<int, std::allocator<int> >::_Deque_impl"* %this1, i32 0, i32 3, !dbg !9842
  call void @_ZNSt15_Deque_iteratorIiRiPiEC2Ev(%"struct.std::_Deque_iterator.28"* %_M_finish) #3, !dbg !9842
  ret void, !dbg !9843
}

; Function Attrs: noinline nounwind optnone uwtable
define linkonce_odr void @_ZNSt11_Deque_baseIiSaIiEE17_M_initialize_mapEm(%"class.std::_Deque_base.24"* %this, i64 %__num_elements) #4 comdat align 2 !dbg !9844 !prof !8748 {
entry:
  %this.addr = alloca %"class.std::_Deque_base.24"*, align 8
  %__num_elements.addr = alloca i64, align 8
  %__num_nodes = alloca i64, align 8
  %ref.tmp = alloca i64, align 8
  %ref.tmp2 = alloca i64, align 8
  %__nstart = alloca i32**, align 8
  %__nfinish = alloca i32**, align 8
  store %"class.std::_Deque_base.24"* %this, %"class.std::_Deque_base.24"** %this.addr, align 8
  call void @llvm.dbg.declare(metadata %"class.std::_Deque_base.24"** %this.addr, metadata !9845, metadata !DIExpression()), !dbg !9846
  store i64 %__num_elements, i64* %__num_elements.addr, align 8
  call void @llvm.dbg.declare(metadata i64* %__num_elements.addr, metadata !9847, metadata !DIExpression()), !dbg !9848
  %this1 = load %"class.std::_Deque_base.24"*, %"class.std::_Deque_base.24"** %this.addr, align 8
  call void @llvm.dbg.declare(metadata i64* %__num_nodes, metadata !9849, metadata !DIExpression()), !dbg !9851
  %0 = load i64, i64* %__num_elements.addr, align 8, !dbg !9852
  %call = call i64 @_ZSt16__deque_buf_sizem(i64 4), !dbg !9853
  %div = udiv i64 %0, %call, !dbg !9854
  %add = add i64 %div, 1, !dbg !9855
  store i64 %add, i64* %__num_nodes, align 8, !dbg !9851
  store i64 8, i64* %ref.tmp, align 8, !dbg !9856
  %1 = load i64, i64* %__num_nodes, align 8, !dbg !9857
  %add3 = add i64 %1, 2, !dbg !9858
  store i64 %add3, i64* %ref.tmp2, align 8, !dbg !9859
  %call4 = call dereferenceable(8) i64* @_ZSt3maxImERKT_S2_S2_(i64* dereferenceable(8) %ref.tmp, i64* dereferenceable(8) %ref.tmp2), !dbg !9860
  %2 = load i64, i64* %call4, align 8, !dbg !9860
  %_M_impl = getelementptr inbounds %"class.std::_Deque_base.24", %"class.std::_Deque_base.24"* %this1, i32 0, i32 0, !dbg !9861
  %_M_map_size = getelementptr inbounds %"struct.std::_Deque_base<int, std::allocator<int> >::_Deque_impl", %"struct.std::_Deque_base<int, std::allocator<int> >::_Deque_impl"* %_M_impl, i32 0, i32 1, !dbg !9862
  store i64 %2, i64* %_M_map_size, align 8, !dbg !9863
  %_M_impl5 = getelementptr inbounds %"class.std::_Deque_base.24", %"class.std::_Deque_base.24"* %this1, i32 0, i32 0, !dbg !9864
  %_M_map_size6 = getelementptr inbounds %"struct.std::_Deque_base<int, std::allocator<int> >::_Deque_impl", %"struct.std::_Deque_base<int, std::allocator<int> >::_Deque_impl"* %_M_impl5, i32 0, i32 1, !dbg !9865
  %3 = load i64, i64* %_M_map_size6, align 8, !dbg !9865
  %call7 = call i32** @_ZNSt11_Deque_baseIiSaIiEE15_M_allocate_mapEm(%"class.std::_Deque_base.24"* %this1, i64 %3), !dbg !9866
  %_M_impl8 = getelementptr inbounds %"class.std::_Deque_base.24", %"class.std::_Deque_base.24"* %this1, i32 0, i32 0, !dbg !9867
  %_M_map = getelementptr inbounds %"struct.std::_Deque_base<int, std::allocator<int> >::_Deque_impl", %"struct.std::_Deque_base<int, std::allocator<int> >::_Deque_impl"* %_M_impl8, i32 0, i32 0, !dbg !9868
  store i32** %call7, i32*** %_M_map, align 8, !dbg !9869
  call void @llvm.dbg.declare(metadata i32*** %__nstart, metadata !9870, metadata !DIExpression()), !dbg !9871
  %_M_impl9 = getelementptr inbounds %"class.std::_Deque_base.24", %"class.std::_Deque_base.24"* %this1, i32 0, i32 0, !dbg !9872
  %_M_map10 = getelementptr inbounds %"struct.std::_Deque_base<int, std::allocator<int> >::_Deque_impl", %"struct.std::_Deque_base<int, std::allocator<int> >::_Deque_impl"* %_M_impl9, i32 0, i32 0, !dbg !9873
  %4 = load i32**, i32*** %_M_map10, align 8, !dbg !9873
  %_M_impl11 = getelementptr inbounds %"class.std::_Deque_base.24", %"class.std::_Deque_base.24"* %this1, i32 0, i32 0, !dbg !9874
  %_M_map_size12 = getelementptr inbounds %"struct.std::_Deque_base<int, std::allocator<int> >::_Deque_impl", %"struct.std::_Deque_base<int, std::allocator<int> >::_Deque_impl"* %_M_impl11, i32 0, i32 1, !dbg !9875
  %5 = load i64, i64* %_M_map_size12, align 8, !dbg !9875
  %6 = load i64, i64* %__num_nodes, align 8, !dbg !9876
  %sub = sub i64 %5, %6, !dbg !9877
  %div13 = udiv i64 %sub, 2, !dbg !9878
  %add.ptr = getelementptr inbounds i32*, i32** %4, i64 %div13, !dbg !9879
  store i32** %add.ptr, i32*** %__nstart, align 8, !dbg !9871
  call void @llvm.dbg.declare(metadata i32*** %__nfinish, metadata !9880, metadata !DIExpression()), !dbg !9881
  %7 = load i32**, i32*** %__nstart, align 8, !dbg !9882
  %8 = load i64, i64* %__num_nodes, align 8, !dbg !9883
  %add.ptr14 = getelementptr inbounds i32*, i32** %7, i64 %8, !dbg !9884
  store i32** %add.ptr14, i32*** %__nfinish, align 8, !dbg !9881
  %9 = load i32**, i32*** %__nstart, align 8, !dbg !9885
  %10 = load i32**, i32*** %__nfinish, align 8, !dbg !9888
  call void @_ZNSt11_Deque_baseIiSaIiEE15_M_create_nodesEPPiS3_(%"class.std::_Deque_base.24"* %this1, i32** %9, i32** %10), !dbg !9889
  %_M_impl15 = getelementptr inbounds %"class.std::_Deque_base.24", %"class.std::_Deque_base.24"* %this1, i32 0, i32 0, !dbg !9890
  %_M_start = getelementptr inbounds %"struct.std::_Deque_base<int, std::allocator<int> >::_Deque_impl", %"struct.std::_Deque_base<int, std::allocator<int> >::_Deque_impl"* %_M_impl15, i32 0, i32 2, !dbg !9891
  %11 = load i32**, i32*** %__nstart, align 8, !dbg !9892
  call void @_ZNSt15_Deque_iteratorIiRiPiE11_M_set_nodeEPS1_(%"struct.std::_Deque_iterator.28"* %_M_start, i32** %11) #3, !dbg !9893
  %_M_impl16 = getelementptr inbounds %"class.std::_Deque_base.24", %"class.std::_Deque_base.24"* %this1, i32 0, i32 0, !dbg !9894
  %_M_finish = getelementptr inbounds %"struct.std::_Deque_base<int, std::allocator<int> >::_Deque_impl", %"struct.std::_Deque_base<int, std::allocator<int> >::_Deque_impl"* %_M_impl16, i32 0, i32 3, !dbg !9895
  %12 = load i32**, i32*** %__nfinish, align 8, !dbg !9896
  %add.ptr17 = getelementptr inbounds i32*, i32** %12, i64 -1, !dbg !9897
  call void @_ZNSt15_Deque_iteratorIiRiPiE11_M_set_nodeEPS1_(%"struct.std::_Deque_iterator.28"* %_M_finish, i32** %add.ptr17) #3, !dbg !9898
  %_M_impl18 = getelementptr inbounds %"class.std::_Deque_base.24", %"class.std::_Deque_base.24"* %this1, i32 0, i32 0, !dbg !9899
  %_M_start19 = getelementptr inbounds %"struct.std::_Deque_base<int, std::allocator<int> >::_Deque_impl", %"struct.std::_Deque_base<int, std::allocator<int> >::_Deque_impl"* %_M_impl18, i32 0, i32 2, !dbg !9900
  %_M_first = getelementptr inbounds %"struct.std::_Deque_iterator.28", %"struct.std::_Deque_iterator.28"* %_M_start19, i32 0, i32 1, !dbg !9901
  %13 = load i32*, i32** %_M_first, align 8, !dbg !9901
  %_M_impl20 = getelementptr inbounds %"class.std::_Deque_base.24", %"class.std::_Deque_base.24"* %this1, i32 0, i32 0, !dbg !9902
  %_M_start21 = getelementptr inbounds %"struct.std::_Deque_base<int, std::allocator<int> >::_Deque_impl", %"struct.std::_Deque_base<int, std::allocator<int> >::_Deque_impl"* %_M_impl20, i32 0, i32 2, !dbg !9903
  %_M_cur = getelementptr inbounds %"struct.std::_Deque_iterator.28", %"struct.std::_Deque_iterator.28"* %_M_start21, i32 0, i32 0, !dbg !9904
  store i32* %13, i32** %_M_cur, align 8, !dbg !9905
  %_M_impl22 = getelementptr inbounds %"class.std::_Deque_base.24", %"class.std::_Deque_base.24"* %this1, i32 0, i32 0, !dbg !9906
  %_M_finish23 = getelementptr inbounds %"struct.std::_Deque_base<int, std::allocator<int> >::_Deque_impl", %"struct.std::_Deque_base<int, std::allocator<int> >::_Deque_impl"* %_M_impl22, i32 0, i32 3, !dbg !9907
  %_M_first24 = getelementptr inbounds %"struct.std::_Deque_iterator.28", %"struct.std::_Deque_iterator.28"* %_M_finish23, i32 0, i32 1, !dbg !9908
  %14 = load i32*, i32** %_M_first24, align 8, !dbg !9908
  %15 = load i64, i64* %__num_elements.addr, align 8, !dbg !9909
  %call25 = call i64 @_ZSt16__deque_buf_sizem(i64 4), !dbg !9910
  %rem = urem i64 %15, %call25, !dbg !9911
  %add.ptr26 = getelementptr inbounds i32, i32* %14, i64 %rem, !dbg !9912
  %_M_impl27 = getelementptr inbounds %"class.std::_Deque_base.24", %"class.std::_Deque_base.24"* %this1, i32 0, i32 0, !dbg !9913
  %_M_finish28 = getelementptr inbounds %"struct.std::_Deque_base<int, std::allocator<int> >::_Deque_impl", %"struct.std::_Deque_base<int, std::allocator<int> >::_Deque_impl"* %_M_impl27, i32 0, i32 3, !dbg !9914
  %_M_cur29 = getelementptr inbounds %"struct.std::_Deque_iterator.28", %"struct.std::_Deque_iterator.28"* %_M_finish28, i32 0, i32 0, !dbg !9915
  store i32* %add.ptr26, i32** %_M_cur29, align 8, !dbg !9916
  ret void, !dbg !9917
}

; Function Attrs: noinline nounwind optnone uwtable
define linkonce_odr void @_ZNSaIiEC2Ev(%"class.std::allocator.25"* %this) unnamed_addr #4 comdat align 2 !dbg !9918 !prof !8748 {
entry:
  %this.addr = alloca %"class.std::allocator.25"*, align 8
  store %"class.std::allocator.25"* %this, %"class.std::allocator.25"** %this.addr, align 8
  call void @llvm.dbg.declare(metadata %"class.std::allocator.25"** %this.addr, metadata !9919, metadata !DIExpression()), !dbg !9921
  %this1 = load %"class.std::allocator.25"*, %"class.std::allocator.25"** %this.addr, align 8
  %0 = bitcast %"class.std::allocator.25"* %this1 to %"class.__gnu_cxx::new_allocator.26"*, !dbg !9922
  call void @_ZN9__gnu_cxx13new_allocatorIiEC2Ev(%"class.__gnu_cxx::new_allocator.26"* %0) #3, !dbg !9923
  ret void, !dbg !9924
}

; Function Attrs: noinline nounwind optnone uwtable
define linkonce_odr void @_ZNSt15_Deque_iteratorIiRiPiEC2Ev(%"struct.std::_Deque_iterator.28"* %this) unnamed_addr #4 comdat align 2 !dbg !9925 !prof !9726 {
entry:
  %this.addr = alloca %"struct.std::_Deque_iterator.28"*, align 8
  store %"struct.std::_Deque_iterator.28"* %this, %"struct.std::_Deque_iterator.28"** %this.addr, align 8
  call void @llvm.dbg.declare(metadata %"struct.std::_Deque_iterator.28"** %this.addr, metadata !9926, metadata !DIExpression()), !dbg !9928
  %this1 = load %"struct.std::_Deque_iterator.28"*, %"struct.std::_Deque_iterator.28"** %this.addr, align 8
  %_M_cur = getelementptr inbounds %"struct.std::_Deque_iterator.28", %"struct.std::_Deque_iterator.28"* %this1, i32 0, i32 0, !dbg !9929
  store i32* null, i32** %_M_cur, align 8, !dbg !9929
  %_M_first = getelementptr inbounds %"struct.std::_Deque_iterator.28", %"struct.std::_Deque_iterator.28"* %this1, i32 0, i32 1, !dbg !9930
  store i32* null, i32** %_M_first, align 8, !dbg !9930
  %_M_last = getelementptr inbounds %"struct.std::_Deque_iterator.28", %"struct.std::_Deque_iterator.28"* %this1, i32 0, i32 2, !dbg !9931
  store i32* null, i32** %_M_last, align 8, !dbg !9931
  %_M_node = getelementptr inbounds %"struct.std::_Deque_iterator.28", %"struct.std::_Deque_iterator.28"* %this1, i32 0, i32 3, !dbg !9932
  store i32** null, i32*** %_M_node, align 8, !dbg !9932
  ret void, !dbg !9933
}

; Function Attrs: noinline nounwind optnone uwtable
define linkonce_odr void @_ZN9__gnu_cxx13new_allocatorIiEC2Ev(%"class.__gnu_cxx::new_allocator.26"* %this) unnamed_addr #4 comdat align 2 !dbg !9934 !prof !8748 {
entry:
  %this.addr = alloca %"class.__gnu_cxx::new_allocator.26"*, align 8
  store %"class.__gnu_cxx::new_allocator.26"* %this, %"class.__gnu_cxx::new_allocator.26"** %this.addr, align 8
  call void @llvm.dbg.declare(metadata %"class.__gnu_cxx::new_allocator.26"** %this.addr, metadata !9935, metadata !DIExpression()), !dbg !9937
  %this1 = load %"class.__gnu_cxx::new_allocator.26"*, %"class.__gnu_cxx::new_allocator.26"** %this.addr, align 8
  ret void, !dbg !9938
}

; Function Attrs: noinline nounwind optnone uwtable
define linkonce_odr i64 @_ZSt16__deque_buf_sizem(i64 %__size) #4 comdat !dbg !9939 !prof !9942 {
entry:
  %__size.addr = alloca i64, align 8
  store i64 %__size, i64* %__size.addr, align 8
  call void @llvm.dbg.declare(metadata i64* %__size.addr, metadata !9943, metadata !DIExpression()), !dbg !9944
  %0 = load i64, i64* %__size.addr, align 8, !dbg !9945
  %cmp = icmp ult i64 %0, 512, !dbg !9946
  br i1 %cmp, label %cond.true, label %cond.false, !dbg !9945, !prof !9947

cond.true:                                        ; preds = %entry
  %1 = load i64, i64* %__size.addr, align 8, !dbg !9948
  %div = udiv i64 512, %1, !dbg !9949
  br label %cond.end, !dbg !9945

cond.false:                                       ; preds = %entry
  br label %cond.end, !dbg !9945

cond.end:                                         ; preds = %cond.false, %cond.true
  %cond = phi i64 [ %div, %cond.true ], [ 1, %cond.false ], !dbg !9945
  ret i64 %cond, !dbg !9950
}

; Function Attrs: noinline nounwind optnone uwtable
define linkonce_odr dereferenceable(8) i64* @_ZSt3maxImERKT_S2_S2_(i64* dereferenceable(8) %__a, i64* dereferenceable(8) %__b) #4 comdat !dbg !9951 !prof !9726 {
entry:
  %retval = alloca i64*, align 8
  %__a.addr = alloca i64*, align 8
  %__b.addr = alloca i64*, align 8
  store i64* %__a, i64** %__a.addr, align 8
  call void @llvm.dbg.declare(metadata i64** %__a.addr, metadata !9958, metadata !DIExpression()), !dbg !9959
  store i64* %__b, i64** %__b.addr, align 8
  call void @llvm.dbg.declare(metadata i64** %__b.addr, metadata !9960, metadata !DIExpression()), !dbg !9961
  %0 = load i64*, i64** %__a.addr, align 8, !dbg !9962
  %1 = load i64, i64* %0, align 8, !dbg !9962
  %2 = load i64*, i64** %__b.addr, align 8, !dbg !9964
  %3 = load i64, i64* %2, align 8, !dbg !9964
  %cmp = icmp ult i64 %1, %3, !dbg !9965
  br i1 %cmp, label %if.then, label %if.end, !dbg !9966, !prof !9745

if.then:                                          ; preds = %entry
  %4 = load i64*, i64** %__b.addr, align 8, !dbg !9967
  store i64* %4, i64** %retval, align 8, !dbg !9968
  br label %return, !dbg !9968

if.end:                                           ; preds = %entry
  %5 = load i64*, i64** %__a.addr, align 8, !dbg !9969
  store i64* %5, i64** %retval, align 8, !dbg !9970
  br label %return, !dbg !9970

return:                                           ; preds = %if.end, %if.then
  %6 = load i64*, i64** %retval, align 8, !dbg !9971
  ret i64* %6, !dbg !9971
}

; Function Attrs: noinline nounwind optnone uwtable
define linkonce_odr i32** @_ZNSt11_Deque_baseIiSaIiEE15_M_allocate_mapEm(%"class.std::_Deque_base.24"* %this, i64 %__n) #4 comdat align 2 !dbg !9972 !prof !8748 {
entry:
  %this.addr = alloca %"class.std::_Deque_base.24"*, align 8
  %__n.addr = alloca i64, align 8
  %__map_alloc = alloca %"class.std::allocator.29", align 1
  store %"class.std::_Deque_base.24"* %this, %"class.std::_Deque_base.24"** %this.addr, align 8
  call void @llvm.dbg.declare(metadata %"class.std::_Deque_base.24"** %this.addr, metadata !9973, metadata !DIExpression()), !dbg !9974
  store i64 %__n, i64* %__n.addr, align 8
  call void @llvm.dbg.declare(metadata i64* %__n.addr, metadata !9975, metadata !DIExpression()), !dbg !9976
  %this1 = load %"class.std::_Deque_base.24"*, %"class.std::_Deque_base.24"** %this.addr, align 8
  call void @llvm.dbg.declare(metadata %"class.std::allocator.29"* %__map_alloc, metadata !9977, metadata !DIExpression()), !dbg !9978
  call void @_ZNKSt11_Deque_baseIiSaIiEE20_M_get_map_allocatorEv(%"class.std::allocator.29"* sret %__map_alloc, %"class.std::_Deque_base.24"* %this1) #3, !dbg !9979
  %0 = load i64, i64* %__n.addr, align 8, !dbg !9980
  %call = call i32** @_ZNSt16allocator_traitsISaIPiEE8allocateERS1_m(%"class.std::allocator.29"* dereferenceable(1) %__map_alloc, i64 %0), !dbg !9981
  call void @_ZNSaIPiED2Ev(%"class.std::allocator.29"* %__map_alloc) #3, !dbg !9982
  ret i32** %call, !dbg !9982
}

; Function Attrs: noinline nounwind optnone uwtable
define linkonce_odr void @_ZNSt11_Deque_baseIiSaIiEE15_M_create_nodesEPPiS3_(%"class.std::_Deque_base.24"* %this, i32** %__nstart, i32** %__nfinish) #4 comdat align 2 !dbg !9983 !prof !8748 {
entry:
  %this.addr = alloca %"class.std::_Deque_base.24"*, align 8
  %__nstart.addr = alloca i32**, align 8
  %__nfinish.addr = alloca i32**, align 8
  %__cur = alloca i32**, align 8
  store %"class.std::_Deque_base.24"* %this, %"class.std::_Deque_base.24"** %this.addr, align 8
  call void @llvm.dbg.declare(metadata %"class.std::_Deque_base.24"** %this.addr, metadata !9984, metadata !DIExpression()), !dbg !9985
  store i32** %__nstart, i32*** %__nstart.addr, align 8
  call void @llvm.dbg.declare(metadata i32*** %__nstart.addr, metadata !9986, metadata !DIExpression()), !dbg !9987
  store i32** %__nfinish, i32*** %__nfinish.addr, align 8
  call void @llvm.dbg.declare(metadata i32*** %__nfinish.addr, metadata !9988, metadata !DIExpression()), !dbg !9989
  %this1 = load %"class.std::_Deque_base.24"*, %"class.std::_Deque_base.24"** %this.addr, align 8
  call void @llvm.dbg.declare(metadata i32*** %__cur, metadata !9990, metadata !DIExpression()), !dbg !9991
  %0 = load i32**, i32*** %__nstart.addr, align 8, !dbg !9992
  store i32** %0, i32*** %__cur, align 8, !dbg !9996
  br label %for.cond, !dbg !9997

for.cond:                                         ; preds = %for.inc, %entry
  %1 = load i32**, i32*** %__cur, align 8, !dbg !9998
  %2 = load i32**, i32*** %__nfinish.addr, align 8, !dbg !10000
  %cmp = icmp ult i32** %1, %2, !dbg !10001
  br i1 %cmp, label %for.body, label %for.end, !dbg !10002, !prof !10003

for.body:                                         ; preds = %for.cond
  %call = call i32* @_ZNSt11_Deque_baseIiSaIiEE16_M_allocate_nodeEv(%"class.std::_Deque_base.24"* %this1), !dbg !10004
  %3 = load i32**, i32*** %__cur, align 8, !dbg !10005
  store i32* %call, i32** %3, align 8, !dbg !10006
  br label %for.inc, !dbg !10007

for.inc:                                          ; preds = %for.body
  %4 = load i32**, i32*** %__cur, align 8, !dbg !10008
  %incdec.ptr = getelementptr inbounds i32*, i32** %4, i32 1, !dbg !10008
  store i32** %incdec.ptr, i32*** %__cur, align 8, !dbg !10008
  br label %for.cond, !dbg !10009, !llvm.loop !10010

for.end:                                          ; preds = %for.cond
  ret void, !dbg !10012
}

; Function Attrs: noinline nounwind optnone uwtable
define linkonce_odr void @_ZNSt15_Deque_iteratorIiRiPiE11_M_set_nodeEPS1_(%"struct.std::_Deque_iterator.28"* %this, i32** %__new_node) #4 comdat align 2 !dbg !10013 !prof !9726 {
entry:
  %this.addr = alloca %"struct.std::_Deque_iterator.28"*, align 8
  %__new_node.addr = alloca i32**, align 8
  store %"struct.std::_Deque_iterator.28"* %this, %"struct.std::_Deque_iterator.28"** %this.addr, align 8
  call void @llvm.dbg.declare(metadata %"struct.std::_Deque_iterator.28"** %this.addr, metadata !10014, metadata !DIExpression()), !dbg !10015
  store i32** %__new_node, i32*** %__new_node.addr, align 8
  call void @llvm.dbg.declare(metadata i32*** %__new_node.addr, metadata !10016, metadata !DIExpression()), !dbg !10017
  %this1 = load %"struct.std::_Deque_iterator.28"*, %"struct.std::_Deque_iterator.28"** %this.addr, align 8
  %0 = load i32**, i32*** %__new_node.addr, align 8, !dbg !10018
  %_M_node = getelementptr inbounds %"struct.std::_Deque_iterator.28", %"struct.std::_Deque_iterator.28"* %this1, i32 0, i32 3, !dbg !10019
  store i32** %0, i32*** %_M_node, align 8, !dbg !10020
  %1 = load i32**, i32*** %__new_node.addr, align 8, !dbg !10021
  %2 = load i32*, i32** %1, align 8, !dbg !10022
  %_M_first = getelementptr inbounds %"struct.std::_Deque_iterator.28", %"struct.std::_Deque_iterator.28"* %this1, i32 0, i32 1, !dbg !10023
  store i32* %2, i32** %_M_first, align 8, !dbg !10024
  %_M_first2 = getelementptr inbounds %"struct.std::_Deque_iterator.28", %"struct.std::_Deque_iterator.28"* %this1, i32 0, i32 1, !dbg !10025
  %3 = load i32*, i32** %_M_first2, align 8, !dbg !10025
  %call = call i64 @_ZNSt15_Deque_iteratorIiRiPiE14_S_buffer_sizeEv() #3, !dbg !10026
  %add.ptr = getelementptr inbounds i32, i32* %3, i64 %call, !dbg !10027
  %_M_last = getelementptr inbounds %"struct.std::_Deque_iterator.28", %"struct.std::_Deque_iterator.28"* %this1, i32 0, i32 2, !dbg !10028
  store i32* %add.ptr, i32** %_M_last, align 8, !dbg !10029
  ret void, !dbg !10030
}

; Function Attrs: noinline nounwind optnone uwtable
define linkonce_odr void @_ZNKSt11_Deque_baseIiSaIiEE20_M_get_map_allocatorEv(%"class.std::allocator.29"* noalias sret %agg.result, %"class.std::_Deque_base.24"* %this) #4 comdat align 2 !dbg !10031 !prof !9726 {
entry:
  %this.addr = alloca %"class.std::_Deque_base.24"*, align 8
  store %"class.std::_Deque_base.24"* %this, %"class.std::_Deque_base.24"** %this.addr, align 8
  call void @llvm.dbg.declare(metadata %"class.std::_Deque_base.24"** %this.addr, metadata !10032, metadata !DIExpression()), !dbg !10034
  %this1 = load %"class.std::_Deque_base.24"*, %"class.std::_Deque_base.24"** %this.addr, align 8
  %call = call dereferenceable(1) %"class.std::allocator.25"* @_ZNKSt11_Deque_baseIiSaIiEE19_M_get_Tp_allocatorEv(%"class.std::_Deque_base.24"* %this1) #3, !dbg !10035
  call void @_ZNSaIPiEC2IiEERKSaIT_E(%"class.std::allocator.29"* %agg.result, %"class.std::allocator.25"* dereferenceable(1) %call) #3, !dbg !10036
  ret void, !dbg !10037
}

; Function Attrs: noinline nounwind optnone uwtable
define linkonce_odr i32** @_ZNSt16allocator_traitsISaIPiEE8allocateERS1_m(%"class.std::allocator.29"* dereferenceable(1) %__a, i64 %__n) #4 comdat align 2 !dbg !10038 !prof !8748 {
entry:
  %__a.addr = alloca %"class.std::allocator.29"*, align 8
  %__n.addr = alloca i64, align 8
  store %"class.std::allocator.29"* %__a, %"class.std::allocator.29"** %__a.addr, align 8
  call void @llvm.dbg.declare(metadata %"class.std::allocator.29"** %__a.addr, metadata !10064, metadata !DIExpression()), !dbg !10065
  store i64 %__n, i64* %__n.addr, align 8
  call void @llvm.dbg.declare(metadata i64* %__n.addr, metadata !10066, metadata !DIExpression()), !dbg !10067
  %0 = load %"class.std::allocator.29"*, %"class.std::allocator.29"** %__a.addr, align 8, !dbg !10068
  %1 = bitcast %"class.std::allocator.29"* %0 to %"class.__gnu_cxx::new_allocator.30"*, !dbg !10068
  %2 = load i64, i64* %__n.addr, align 8, !dbg !10069
  %call = call i32** @_ZN9__gnu_cxx13new_allocatorIPiE8allocateEmPKv(%"class.__gnu_cxx::new_allocator.30"* %1, i64 %2, i8* null), !dbg !10070
  ret i32** %call, !dbg !10071
}

; Function Attrs: noinline nounwind optnone uwtable
define linkonce_odr void @_ZNSaIPiED2Ev(%"class.std::allocator.29"* %this) unnamed_addr #4 comdat align 2 !dbg !10072 !prof !9726 {
entry:
  %this.addr = alloca %"class.std::allocator.29"*, align 8
  store %"class.std::allocator.29"* %this, %"class.std::allocator.29"** %this.addr, align 8
  call void @llvm.dbg.declare(metadata %"class.std::allocator.29"** %this.addr, metadata !10073, metadata !DIExpression()), !dbg !10075
  %this1 = load %"class.std::allocator.29"*, %"class.std::allocator.29"** %this.addr, align 8
  %0 = bitcast %"class.std::allocator.29"* %this1 to %"class.__gnu_cxx::new_allocator.30"*, !dbg !10076
  call void @_ZN9__gnu_cxx13new_allocatorIPiED2Ev(%"class.__gnu_cxx::new_allocator.30"* %0) #3, !dbg !10076
  ret void, !dbg !10078
}

; Function Attrs: noinline nounwind optnone uwtable
define linkonce_odr dereferenceable(1) %"class.std::allocator.25"* @_ZNKSt11_Deque_baseIiSaIiEE19_M_get_Tp_allocatorEv(%"class.std::_Deque_base.24"* %this) #4 comdat align 2 !dbg !10079 !prof !9726 {
entry:
  %this.addr = alloca %"class.std::_Deque_base.24"*, align 8
  store %"class.std::_Deque_base.24"* %this, %"class.std::_Deque_base.24"** %this.addr, align 8
  call void @llvm.dbg.declare(metadata %"class.std::_Deque_base.24"** %this.addr, metadata !10080, metadata !DIExpression()), !dbg !10081
  %this1 = load %"class.std::_Deque_base.24"*, %"class.std::_Deque_base.24"** %this.addr, align 8
  %_M_impl = getelementptr inbounds %"class.std::_Deque_base.24", %"class.std::_Deque_base.24"* %this1, i32 0, i32 0, !dbg !10082
  %0 = bitcast %"struct.std::_Deque_base<int, std::allocator<int> >::_Deque_impl"* %_M_impl to %"class.std::allocator.25"*, !dbg !10083
  ret %"class.std::allocator.25"* %0, !dbg !10084
}

; Function Attrs: noinline nounwind optnone uwtable
define linkonce_odr void @_ZNSaIPiEC2IiEERKSaIT_E(%"class.std::allocator.29"* %this, %"class.std::allocator.25"* dereferenceable(1)) unnamed_addr #4 comdat align 2 !dbg !10085 !prof !9726 {
entry:
  %this.addr = alloca %"class.std::allocator.29"*, align 8
  %.addr = alloca %"class.std::allocator.25"*, align 8
  store %"class.std::allocator.29"* %this, %"class.std::allocator.29"** %this.addr, align 8
  call void @llvm.dbg.declare(metadata %"class.std::allocator.29"** %this.addr, metadata !10091, metadata !DIExpression()), !dbg !10092
  store %"class.std::allocator.25"* %0, %"class.std::allocator.25"** %.addr, align 8
  call void @llvm.dbg.declare(metadata %"class.std::allocator.25"** %.addr, metadata !10093, metadata !DIExpression()), !dbg !10094
  %this1 = load %"class.std::allocator.29"*, %"class.std::allocator.29"** %this.addr, align 8
  %1 = bitcast %"class.std::allocator.29"* %this1 to %"class.__gnu_cxx::new_allocator.30"*, !dbg !10095
  call void @_ZN9__gnu_cxx13new_allocatorIPiEC2Ev(%"class.__gnu_cxx::new_allocator.30"* %1) #3, !dbg !10096
  ret void, !dbg !10097
}

; Function Attrs: noinline nounwind optnone uwtable
define linkonce_odr void @_ZN9__gnu_cxx13new_allocatorIPiEC2Ev(%"class.__gnu_cxx::new_allocator.30"* %this) unnamed_addr #4 comdat align 2 !dbg !10098 !prof !9726 {
entry:
  %this.addr = alloca %"class.__gnu_cxx::new_allocator.30"*, align 8
  store %"class.__gnu_cxx::new_allocator.30"* %this, %"class.__gnu_cxx::new_allocator.30"** %this.addr, align 8
  call void @llvm.dbg.declare(metadata %"class.__gnu_cxx::new_allocator.30"** %this.addr, metadata !10099, metadata !DIExpression()), !dbg !10101
  %this1 = load %"class.__gnu_cxx::new_allocator.30"*, %"class.__gnu_cxx::new_allocator.30"** %this.addr, align 8
  ret void, !dbg !10102
}

; Function Attrs: noinline nounwind optnone uwtable
define linkonce_odr i32** @_ZN9__gnu_cxx13new_allocatorIPiE8allocateEmPKv(%"class.__gnu_cxx::new_allocator.30"* %this, i64 %__n, i8*) #4 comdat align 2 !dbg !10103 !prof !8748 {
entry:
  %this.addr = alloca %"class.__gnu_cxx::new_allocator.30"*, align 8
  %__n.addr = alloca i64, align 8
  %.addr = alloca i8*, align 8
  store %"class.__gnu_cxx::new_allocator.30"* %this, %"class.__gnu_cxx::new_allocator.30"** %this.addr, align 8
  call void @llvm.dbg.declare(metadata %"class.__gnu_cxx::new_allocator.30"** %this.addr, metadata !10104, metadata !DIExpression()), !dbg !10105
  store i64 %__n, i64* %__n.addr, align 8
  call void @llvm.dbg.declare(metadata i64* %__n.addr, metadata !10106, metadata !DIExpression()), !dbg !10107
  store i8* %0, i8** %.addr, align 8
  call void @llvm.dbg.declare(metadata i8** %.addr, metadata !10108, metadata !DIExpression()), !dbg !10109
  %this1 = load %"class.__gnu_cxx::new_allocator.30"*, %"class.__gnu_cxx::new_allocator.30"** %this.addr, align 8
  %1 = load i64, i64* %__n.addr, align 8, !dbg !10110
  %call = call i64 @_ZNK9__gnu_cxx13new_allocatorIPiE8max_sizeEv(%"class.__gnu_cxx::new_allocator.30"* %this1) #3, !dbg !10112
  %cmp = icmp ugt i64 %1, %call, !dbg !10113
  br i1 %cmp, label %if.then, label %if.end, !dbg !10114, !prof !10115

if.then:                                          ; preds = %entry
  call void @_ZSt17__throw_bad_allocv() #10, !dbg !10116
  unreachable, !dbg !10116

if.end:                                           ; preds = %entry
  %2 = load i64, i64* %__n.addr, align 8, !dbg !10117
  %mul = mul i64 %2, 8, !dbg !10118
  %call2 = call i8* @_Znwm(i64 %mul), !dbg !10119
  %3 = bitcast i8* %call2 to i32**, !dbg !10120
  ret i32** %3, !dbg !10121
}

; Function Attrs: noinline nounwind optnone uwtable
define linkonce_odr i64 @_ZNK9__gnu_cxx13new_allocatorIPiE8max_sizeEv(%"class.__gnu_cxx::new_allocator.30"* %this) #4 comdat align 2 !dbg !10122 !prof !8748 {
entry:
  %this.addr = alloca %"class.__gnu_cxx::new_allocator.30"*, align 8
  store %"class.__gnu_cxx::new_allocator.30"* %this, %"class.__gnu_cxx::new_allocator.30"** %this.addr, align 8
  call void @llvm.dbg.declare(metadata %"class.__gnu_cxx::new_allocator.30"** %this.addr, metadata !10123, metadata !DIExpression()), !dbg !10125
  %this1 = load %"class.__gnu_cxx::new_allocator.30"*, %"class.__gnu_cxx::new_allocator.30"** %this.addr, align 8
  ret i64 2305843009213693951, !dbg !10126
}

; Function Attrs: noreturn
declare void @_ZSt17__throw_bad_allocv() #6

; Function Attrs: nobuiltin
declare noalias i8* @_Znwm(i64) #7

; Function Attrs: noinline nounwind optnone uwtable
define linkonce_odr void @_ZN9__gnu_cxx13new_allocatorIPiED2Ev(%"class.__gnu_cxx::new_allocator.30"* %this) unnamed_addr #4 comdat align 2 !dbg !10127 !prof !9726 {
entry:
  %this.addr = alloca %"class.__gnu_cxx::new_allocator.30"*, align 8
  store %"class.__gnu_cxx::new_allocator.30"* %this, %"class.__gnu_cxx::new_allocator.30"** %this.addr, align 8
  call void @llvm.dbg.declare(metadata %"class.__gnu_cxx::new_allocator.30"** %this.addr, metadata !10128, metadata !DIExpression()), !dbg !10129
  %this1 = load %"class.__gnu_cxx::new_allocator.30"*, %"class.__gnu_cxx::new_allocator.30"** %this.addr, align 8
  ret void, !dbg !10130
}

; Function Attrs: noinline nounwind optnone uwtable
define linkonce_odr i32* @_ZNSt11_Deque_baseIiSaIiEE16_M_allocate_nodeEv(%"class.std::_Deque_base.24"* %this) #4 comdat align 2 !dbg !10131 !prof !8748 {
entry:
  %this.addr = alloca %"class.std::_Deque_base.24"*, align 8
  store %"class.std::_Deque_base.24"* %this, %"class.std::_Deque_base.24"** %this.addr, align 8
  call void @llvm.dbg.declare(metadata %"class.std::_Deque_base.24"** %this.addr, metadata !10132, metadata !DIExpression()), !dbg !10133
  %this1 = load %"class.std::_Deque_base.24"*, %"class.std::_Deque_base.24"** %this.addr, align 8
  %_M_impl = getelementptr inbounds %"class.std::_Deque_base.24", %"class.std::_Deque_base.24"* %this1, i32 0, i32 0, !dbg !10134
  %0 = bitcast %"struct.std::_Deque_base<int, std::allocator<int> >::_Deque_impl"* %_M_impl to %"class.std::allocator.25"*, !dbg !10134
  %call = call i64 @_ZSt16__deque_buf_sizem(i64 4), !dbg !10135
  %call2 = call i32* @_ZNSt16allocator_traitsISaIiEE8allocateERS0_m(%"class.std::allocator.25"* dereferenceable(1) %0, i64 %call), !dbg !10136
  ret i32* %call2, !dbg !10137
}

; Function Attrs: noinline nounwind optnone uwtable
define linkonce_odr i32* @_ZNSt16allocator_traitsISaIiEE8allocateERS0_m(%"class.std::allocator.25"* dereferenceable(1) %__a, i64 %__n) #4 comdat align 2 !dbg !10138 !prof !8748 {
entry:
  %__a.addr = alloca %"class.std::allocator.25"*, align 8
  %__n.addr = alloca i64, align 8
  store %"class.std::allocator.25"* %__a, %"class.std::allocator.25"** %__a.addr, align 8
  call void @llvm.dbg.declare(metadata %"class.std::allocator.25"** %__a.addr, metadata !10139, metadata !DIExpression()), !dbg !10140
  store i64 %__n, i64* %__n.addr, align 8
  call void @llvm.dbg.declare(metadata i64* %__n.addr, metadata !10141, metadata !DIExpression()), !dbg !10142
  %0 = load %"class.std::allocator.25"*, %"class.std::allocator.25"** %__a.addr, align 8, !dbg !10143
  %1 = bitcast %"class.std::allocator.25"* %0 to %"class.__gnu_cxx::new_allocator.26"*, !dbg !10143
  %2 = load i64, i64* %__n.addr, align 8, !dbg !10144
  %call = call i32* @_ZN9__gnu_cxx13new_allocatorIiE8allocateEmPKv(%"class.__gnu_cxx::new_allocator.26"* %1, i64 %2, i8* null), !dbg !10145
  ret i32* %call, !dbg !10146
}

; Function Attrs: noinline nounwind optnone uwtable
define linkonce_odr i32* @_ZN9__gnu_cxx13new_allocatorIiE8allocateEmPKv(%"class.__gnu_cxx::new_allocator.26"* %this, i64 %__n, i8*) #4 comdat align 2 !dbg !10147 !prof !8748 {
entry:
  %this.addr = alloca %"class.__gnu_cxx::new_allocator.26"*, align 8
  %__n.addr = alloca i64, align 8
  %.addr = alloca i8*, align 8
  store %"class.__gnu_cxx::new_allocator.26"* %this, %"class.__gnu_cxx::new_allocator.26"** %this.addr, align 8
  call void @llvm.dbg.declare(metadata %"class.__gnu_cxx::new_allocator.26"** %this.addr, metadata !10148, metadata !DIExpression()), !dbg !10149
  store i64 %__n, i64* %__n.addr, align 8
  call void @llvm.dbg.declare(metadata i64* %__n.addr, metadata !10150, metadata !DIExpression()), !dbg !10151
  store i8* %0, i8** %.addr, align 8
  call void @llvm.dbg.declare(metadata i8** %.addr, metadata !10152, metadata !DIExpression()), !dbg !10153
  %this1 = load %"class.__gnu_cxx::new_allocator.26"*, %"class.__gnu_cxx::new_allocator.26"** %this.addr, align 8
  %1 = load i64, i64* %__n.addr, align 8, !dbg !10154
  %call = call i64 @_ZNK9__gnu_cxx13new_allocatorIiE8max_sizeEv(%"class.__gnu_cxx::new_allocator.26"* %this1) #3, !dbg !10156
  %cmp = icmp ugt i64 %1, %call, !dbg !10157
  br i1 %cmp, label %if.then, label %if.end, !dbg !10158, !prof !10115

if.then:                                          ; preds = %entry
  call void @_ZSt17__throw_bad_allocv() #10, !dbg !10159
  unreachable, !dbg !10159

if.end:                                           ; preds = %entry
  %2 = load i64, i64* %__n.addr, align 8, !dbg !10160
  %mul = mul i64 %2, 4, !dbg !10161
  %call2 = call i8* @_Znwm(i64 %mul), !dbg !10162
  %3 = bitcast i8* %call2 to i32*, !dbg !10163
  ret i32* %3, !dbg !10164
}

; Function Attrs: noinline nounwind optnone uwtable
define linkonce_odr i64 @_ZNK9__gnu_cxx13new_allocatorIiE8max_sizeEv(%"class.__gnu_cxx::new_allocator.26"* %this) #4 comdat align 2 !dbg !10165 !prof !8748 {
entry:
  %this.addr = alloca %"class.__gnu_cxx::new_allocator.26"*, align 8
  store %"class.__gnu_cxx::new_allocator.26"* %this, %"class.__gnu_cxx::new_allocator.26"** %this.addr, align 8
  call void @llvm.dbg.declare(metadata %"class.__gnu_cxx::new_allocator.26"** %this.addr, metadata !10166, metadata !DIExpression()), !dbg !10168
  %this1 = load %"class.__gnu_cxx::new_allocator.26"*, %"class.__gnu_cxx::new_allocator.26"** %this.addr, align 8
  ret i64 4611686018427387903, !dbg !10169
}

; Function Attrs: noinline nounwind optnone uwtable
define linkonce_odr i64 @_ZNSt15_Deque_iteratorIiRiPiE14_S_buffer_sizeEv() #4 comdat align 2 !dbg !10170 !prof !9726 {
entry:
  %call = call i64 @_ZSt16__deque_buf_sizem(i64 4), !dbg !10171
  ret i64 %call, !dbg !10172
}

; Function Attrs: noinline nounwind optnone uwtable
define linkonce_odr dereferenceable(32) %"class.std::__cxx11::basic_string"* @_ZSt4moveIRNSt7__cxx1112basic_stringIcSt11char_traitsIcESaIcEEEEONSt16remove_referenceIT_E4typeEOS8_(%"class.std::__cxx11::basic_string"* dereferenceable(32) %__t) #4 comdat !dbg !10173 !prof !9726 {
entry:
  %__t.addr = alloca %"class.std::__cxx11::basic_string"*, align 8
  store %"class.std::__cxx11::basic_string"* %__t, %"class.std::__cxx11::basic_string"** %__t.addr, align 8
  call void @llvm.dbg.declare(metadata %"class.std::__cxx11::basic_string"** %__t.addr, metadata !10183, metadata !DIExpression()), !dbg !10184
  %0 = load %"class.std::__cxx11::basic_string"*, %"class.std::__cxx11::basic_string"** %__t.addr, align 8, !dbg !10185
  ret %"class.std::__cxx11::basic_string"* %0, !dbg !10186
}

declare dereferenceable(32) %"class.std::__cxx11::basic_string"* @_ZNSt7__cxx1112basic_stringIcSt11char_traitsIcESaIcEE6insertEmPKc(%"class.std::__cxx11::basic_string"*, i64, i8*) #1

; Function Attrs: nounwind
declare void @_ZNSt7__cxx1112basic_stringIcSt11char_traitsIcESaIcEEC1EOS4_(%"class.std::__cxx11::basic_string"*, %"class.std::__cxx11::basic_string"* dereferenceable(32)) unnamed_addr #2

; Function Attrs: nobuiltin nounwind
declare void @_ZdlPv(i8*) #8

; Function Attrs: noinline nounwind optnone uwtable
define linkonce_odr zeroext i1 @_ZNKSt5dequeIiSaIiEE5emptyEv(%"class.std::deque.23"* %this) #4 comdat align 2 !dbg !10187 !prof !9138 {
entry:
  %this.addr = alloca %"class.std::deque.23"*, align 8
  store %"class.std::deque.23"* %this, %"class.std::deque.23"** %this.addr, align 8
  call void @llvm.dbg.declare(metadata %"class.std::deque.23"** %this.addr, metadata !10188, metadata !DIExpression()), !dbg !10190
  %this1 = load %"class.std::deque.23"*, %"class.std::deque.23"** %this.addr, align 8
  %0 = bitcast %"class.std::deque.23"* %this1 to %"class.std::_Deque_base.24"*, !dbg !10191
  %_M_impl = getelementptr inbounds %"class.std::_Deque_base.24", %"class.std::_Deque_base.24"* %0, i32 0, i32 0, !dbg !10191
  %_M_finish = getelementptr inbounds %"struct.std::_Deque_base<int, std::allocator<int> >::_Deque_impl", %"struct.std::_Deque_base<int, std::allocator<int> >::_Deque_impl"* %_M_impl, i32 0, i32 3, !dbg !10192
  %1 = bitcast %"class.std::deque.23"* %this1 to %"class.std::_Deque_base.24"*, !dbg !10193
  %_M_impl2 = getelementptr inbounds %"class.std::_Deque_base.24", %"class.std::_Deque_base.24"* %1, i32 0, i32 0, !dbg !10193
  %_M_start = getelementptr inbounds %"struct.std::_Deque_base<int, std::allocator<int> >::_Deque_impl", %"struct.std::_Deque_base<int, std::allocator<int> >::_Deque_impl"* %_M_impl2, i32 0, i32 2, !dbg !10194
  %call = call zeroext i1 @_ZSteqIiRiPiEbRKSt15_Deque_iteratorIT_T0_T1_ES8_(%"struct.std::_Deque_iterator.28"* dereferenceable(32) %_M_finish, %"struct.std::_Deque_iterator.28"* dereferenceable(32) %_M_start) #3, !dbg !10195
  ret i1 %call, !dbg !10196
}

declare dereferenceable(272) %"class.std::basic_ostream"* @_ZStlsISt11char_traitsIcEERSt13basic_ostreamIcT_ES5_PKc(%"class.std::basic_ostream"* dereferenceable(272), i8*) #1

declare dereferenceable(272) %"class.std::basic_ostream"* @_ZStlsIcSt11char_traitsIcESaIcEERSt13basic_ostreamIT_T0_ES7_RKNSt7__cxx1112basic_stringIS4_S5_T1_EE(%"class.std::basic_ostream"* dereferenceable(272), %"class.std::__cxx11::basic_string"* dereferenceable(32)) #1

declare dereferenceable(272) %"class.std::basic_ostream"* @_ZNSolsEPFRSoS_E(%"class.std::basic_ostream"*, %"class.std::basic_ostream"* (%"class.std::basic_ostream"*)*) #1

declare dereferenceable(272) %"class.std::basic_ostream"* @_ZSt4endlIcSt11char_traitsIcEERSt13basic_ostreamIT_T0_ES6_(%"class.std::basic_ostream"* dereferenceable(272)) #1

; Function Attrs: noinline nounwind optnone uwtable
define linkonce_odr void @_ZNSt5dequeIiSaIiEED2Ev(%"class.std::deque.23"* %this) unnamed_addr #4 comdat align 2 !dbg !10197 !prof !8748 {
entry:
  %this.addr = alloca %"class.std::deque.23"*, align 8
  %agg.tmp = alloca %"struct.std::_Deque_iterator.28", align 8
  %agg.tmp2 = alloca %"struct.std::_Deque_iterator.28", align 8
  store %"class.std::deque.23"* %this, %"class.std::deque.23"** %this.addr, align 8
  call void @llvm.dbg.declare(metadata %"class.std::deque.23"** %this.addr, metadata !10198, metadata !DIExpression()), !dbg !10199
  %this1 = load %"class.std::deque.23"*, %"class.std::deque.23"** %this.addr, align 8
  call void @_ZNSt5dequeIiSaIiEE5beginEv(%"struct.std::_Deque_iterator.28"* sret %agg.tmp, %"class.std::deque.23"* %this1) #3, !dbg !10200
  call void @_ZNSt5dequeIiSaIiEE3endEv(%"struct.std::_Deque_iterator.28"* sret %agg.tmp2, %"class.std::deque.23"* %this1) #3, !dbg !10202
  %0 = bitcast %"class.std::deque.23"* %this1 to %"class.std::_Deque_base.24"*, !dbg !10203
  %call = call dereferenceable(1) %"class.std::allocator.25"* @_ZNSt11_Deque_baseIiSaIiEE19_M_get_Tp_allocatorEv(%"class.std::_Deque_base.24"* %0) #3, !dbg !10203
  call void @_ZNSt5dequeIiSaIiEE15_M_destroy_dataESt15_Deque_iteratorIiRiPiES5_RKS0_(%"class.std::deque.23"* %this1, %"struct.std::_Deque_iterator.28"* %agg.tmp, %"struct.std::_Deque_iterator.28"* %agg.tmp2, %"class.std::allocator.25"* dereferenceable(1) %call), !dbg !10204
  %1 = bitcast %"class.std::deque.23"* %this1 to %"class.std::_Deque_base.24"*, !dbg !10205
  call void @_ZNSt11_Deque_baseIiSaIiEED2Ev(%"class.std::_Deque_base.24"* %1) #3, !dbg !10205
  ret void, !dbg !10206
}

; Function Attrs: noinline nounwind optnone uwtable
define linkonce_odr zeroext i1 @_ZSteqIiRiPiEbRKSt15_Deque_iteratorIT_T0_T1_ES8_(%"struct.std::_Deque_iterator.28"* dereferenceable(32) %__x, %"struct.std::_Deque_iterator.28"* dereferenceable(32) %__y) #4 comdat !dbg !10207 !prof !9138 {
entry:
  %__x.addr = alloca %"struct.std::_Deque_iterator.28"*, align 8
  %__y.addr = alloca %"struct.std::_Deque_iterator.28"*, align 8
  store %"struct.std::_Deque_iterator.28"* %__x, %"struct.std::_Deque_iterator.28"** %__x.addr, align 8
  call void @llvm.dbg.declare(metadata %"struct.std::_Deque_iterator.28"** %__x.addr, metadata !10211, metadata !DIExpression()), !dbg !10212
  store %"struct.std::_Deque_iterator.28"* %__y, %"struct.std::_Deque_iterator.28"** %__y.addr, align 8
  call void @llvm.dbg.declare(metadata %"struct.std::_Deque_iterator.28"** %__y.addr, metadata !10213, metadata !DIExpression()), !dbg !10214
  %0 = load %"struct.std::_Deque_iterator.28"*, %"struct.std::_Deque_iterator.28"** %__x.addr, align 8, !dbg !10215
  %_M_cur = getelementptr inbounds %"struct.std::_Deque_iterator.28", %"struct.std::_Deque_iterator.28"* %0, i32 0, i32 0, !dbg !10216
  %1 = load i32*, i32** %_M_cur, align 8, !dbg !10216
  %2 = load %"struct.std::_Deque_iterator.28"*, %"struct.std::_Deque_iterator.28"** %__y.addr, align 8, !dbg !10217
  %_M_cur1 = getelementptr inbounds %"struct.std::_Deque_iterator.28", %"struct.std::_Deque_iterator.28"* %2, i32 0, i32 0, !dbg !10218
  %3 = load i32*, i32** %_M_cur1, align 8, !dbg !10218
  %cmp = icmp eq i32* %1, %3, !dbg !10219
  ret i1 %cmp, !dbg !10220
}

; Function Attrs: noinline nounwind optnone uwtable
define linkonce_odr void @_ZNSt5dequeIiSaIiEE15_M_destroy_dataESt15_Deque_iteratorIiRiPiES5_RKS0_(%"class.std::deque.23"* %this, %"struct.std::_Deque_iterator.28"* %__first, %"struct.std::_Deque_iterator.28"* %__last, %"class.std::allocator.25"* dereferenceable(1)) #4 comdat align 2 !dbg !10221 !prof !8748 {
entry:
  %this.addr = alloca %"class.std::deque.23"*, align 8
  %.addr = alloca %"class.std::allocator.25"*, align 8
  store %"class.std::deque.23"* %this, %"class.std::deque.23"** %this.addr, align 8
  call void @llvm.dbg.declare(metadata %"class.std::deque.23"** %this.addr, metadata !10222, metadata !DIExpression()), !dbg !10223
  call void @llvm.dbg.declare(metadata %"struct.std::_Deque_iterator.28"* %__first, metadata !10224, metadata !DIExpression()), !dbg !10225
  call void @llvm.dbg.declare(metadata %"struct.std::_Deque_iterator.28"* %__last, metadata !10226, metadata !DIExpression()), !dbg !10227
  store %"class.std::allocator.25"* %0, %"class.std::allocator.25"** %.addr, align 8
  call void @llvm.dbg.declare(metadata %"class.std::allocator.25"** %.addr, metadata !10228, metadata !DIExpression()), !dbg !10229
  %this1 = load %"class.std::deque.23"*, %"class.std::deque.23"** %this.addr, align 8
  ret void, !dbg !10230
}

; Function Attrs: noinline nounwind optnone uwtable
define linkonce_odr void @_ZNSt5dequeIiSaIiEE5beginEv(%"struct.std::_Deque_iterator.28"* noalias sret %agg.result, %"class.std::deque.23"* %this) #4 comdat align 2 !dbg !10231 !prof !9138 {
entry:
  %this.addr = alloca %"class.std::deque.23"*, align 8
  store %"class.std::deque.23"* %this, %"class.std::deque.23"** %this.addr, align 8
  call void @llvm.dbg.declare(metadata %"class.std::deque.23"** %this.addr, metadata !10232, metadata !DIExpression()), !dbg !10233
  %this1 = load %"class.std::deque.23"*, %"class.std::deque.23"** %this.addr, align 8
  %0 = bitcast %"class.std::deque.23"* %this1 to %"class.std::_Deque_base.24"*, !dbg !10234
  %_M_impl = getelementptr inbounds %"class.std::_Deque_base.24", %"class.std::_Deque_base.24"* %0, i32 0, i32 0, !dbg !10234
  %_M_start = getelementptr inbounds %"struct.std::_Deque_base<int, std::allocator<int> >::_Deque_impl", %"struct.std::_Deque_base<int, std::allocator<int> >::_Deque_impl"* %_M_impl, i32 0, i32 2, !dbg !10235
  call void @_ZNSt15_Deque_iteratorIiRiPiEC2ERKS2_(%"struct.std::_Deque_iterator.28"* %agg.result, %"struct.std::_Deque_iterator.28"* dereferenceable(32) %_M_start) #3, !dbg !10236
  ret void, !dbg !10237
}

; Function Attrs: noinline nounwind optnone uwtable
define linkonce_odr void @_ZNSt5dequeIiSaIiEE3endEv(%"struct.std::_Deque_iterator.28"* noalias sret %agg.result, %"class.std::deque.23"* %this) #4 comdat align 2 !dbg !10238 !prof !8748 {
entry:
  %this.addr = alloca %"class.std::deque.23"*, align 8
  store %"class.std::deque.23"* %this, %"class.std::deque.23"** %this.addr, align 8
  call void @llvm.dbg.declare(metadata %"class.std::deque.23"** %this.addr, metadata !10239, metadata !DIExpression()), !dbg !10240
  %this1 = load %"class.std::deque.23"*, %"class.std::deque.23"** %this.addr, align 8
  %0 = bitcast %"class.std::deque.23"* %this1 to %"class.std::_Deque_base.24"*, !dbg !10241
  %_M_impl = getelementptr inbounds %"class.std::_Deque_base.24", %"class.std::_Deque_base.24"* %0, i32 0, i32 0, !dbg !10241
  %_M_finish = getelementptr inbounds %"struct.std::_Deque_base<int, std::allocator<int> >::_Deque_impl", %"struct.std::_Deque_base<int, std::allocator<int> >::_Deque_impl"* %_M_impl, i32 0, i32 3, !dbg !10242
  call void @_ZNSt15_Deque_iteratorIiRiPiEC2ERKS2_(%"struct.std::_Deque_iterator.28"* %agg.result, %"struct.std::_Deque_iterator.28"* dereferenceable(32) %_M_finish) #3, !dbg !10243
  ret void, !dbg !10244
}

; Function Attrs: noinline nounwind optnone uwtable
define linkonce_odr dereferenceable(1) %"class.std::allocator.25"* @_ZNSt11_Deque_baseIiSaIiEE19_M_get_Tp_allocatorEv(%"class.std::_Deque_base.24"* %this) #4 comdat align 2 !dbg !10245 !prof !8748 {
entry:
  %this.addr = alloca %"class.std::_Deque_base.24"*, align 8
  store %"class.std::_Deque_base.24"* %this, %"class.std::_Deque_base.24"** %this.addr, align 8
  call void @llvm.dbg.declare(metadata %"class.std::_Deque_base.24"** %this.addr, metadata !10246, metadata !DIExpression()), !dbg !10247
  %this1 = load %"class.std::_Deque_base.24"*, %"class.std::_Deque_base.24"** %this.addr, align 8
  %_M_impl = getelementptr inbounds %"class.std::_Deque_base.24", %"class.std::_Deque_base.24"* %this1, i32 0, i32 0, !dbg !10248
  %0 = bitcast %"struct.std::_Deque_base<int, std::allocator<int> >::_Deque_impl"* %_M_impl to %"class.std::allocator.25"*, !dbg !10249
  ret %"class.std::allocator.25"* %0, !dbg !10250
}

; Function Attrs: noinline nounwind optnone uwtable
define linkonce_odr void @_ZNSt11_Deque_baseIiSaIiEED2Ev(%"class.std::_Deque_base.24"* %this) unnamed_addr #4 comdat align 2 !dbg !10251 !prof !8748 {
entry:
  %this.addr = alloca %"class.std::_Deque_base.24"*, align 8
  store %"class.std::_Deque_base.24"* %this, %"class.std::_Deque_base.24"** %this.addr, align 8
  call void @llvm.dbg.declare(metadata %"class.std::_Deque_base.24"** %this.addr, metadata !10252, metadata !DIExpression()), !dbg !10253
  %this1 = load %"class.std::_Deque_base.24"*, %"class.std::_Deque_base.24"** %this.addr, align 8
  %_M_impl = getelementptr inbounds %"class.std::_Deque_base.24", %"class.std::_Deque_base.24"* %this1, i32 0, i32 0, !dbg !10254
  %_M_map = getelementptr inbounds %"struct.std::_Deque_base<int, std::allocator<int> >::_Deque_impl", %"struct.std::_Deque_base<int, std::allocator<int> >::_Deque_impl"* %_M_impl, i32 0, i32 0, !dbg !10257
  %0 = load i32**, i32*** %_M_map, align 8, !dbg !10257
  %tobool = icmp ne i32** %0, null, !dbg !10258
  br i1 %tobool, label %if.then, label %if.end, !dbg !10259, !prof !8769

if.then:                                          ; preds = %entry
  %_M_impl2 = getelementptr inbounds %"class.std::_Deque_base.24", %"class.std::_Deque_base.24"* %this1, i32 0, i32 0, !dbg !10260
  %_M_start = getelementptr inbounds %"struct.std::_Deque_base<int, std::allocator<int> >::_Deque_impl", %"struct.std::_Deque_base<int, std::allocator<int> >::_Deque_impl"* %_M_impl2, i32 0, i32 2, !dbg !10262
  %_M_node = getelementptr inbounds %"struct.std::_Deque_iterator.28", %"struct.std::_Deque_iterator.28"* %_M_start, i32 0, i32 3, !dbg !10263
  %1 = load i32**, i32*** %_M_node, align 8, !dbg !10263
  %_M_impl3 = getelementptr inbounds %"class.std::_Deque_base.24", %"class.std::_Deque_base.24"* %this1, i32 0, i32 0, !dbg !10264
  %_M_finish = getelementptr inbounds %"struct.std::_Deque_base<int, std::allocator<int> >::_Deque_impl", %"struct.std::_Deque_base<int, std::allocator<int> >::_Deque_impl"* %_M_impl3, i32 0, i32 3, !dbg !10265
  %_M_node4 = getelementptr inbounds %"struct.std::_Deque_iterator.28", %"struct.std::_Deque_iterator.28"* %_M_finish, i32 0, i32 3, !dbg !10266
  %2 = load i32**, i32*** %_M_node4, align 8, !dbg !10266
  %add.ptr = getelementptr inbounds i32*, i32** %2, i64 1, !dbg !10267
  call void @_ZNSt11_Deque_baseIiSaIiEE16_M_destroy_nodesEPPiS3_(%"class.std::_Deque_base.24"* %this1, i32** %1, i32** %add.ptr) #3, !dbg !10268
  %_M_impl5 = getelementptr inbounds %"class.std::_Deque_base.24", %"class.std::_Deque_base.24"* %this1, i32 0, i32 0, !dbg !10269
  %_M_map6 = getelementptr inbounds %"struct.std::_Deque_base<int, std::allocator<int> >::_Deque_impl", %"struct.std::_Deque_base<int, std::allocator<int> >::_Deque_impl"* %_M_impl5, i32 0, i32 0, !dbg !10270
  %3 = load i32**, i32*** %_M_map6, align 8, !dbg !10270
  %_M_impl7 = getelementptr inbounds %"class.std::_Deque_base.24", %"class.std::_Deque_base.24"* %this1, i32 0, i32 0, !dbg !10271
  %_M_map_size = getelementptr inbounds %"struct.std::_Deque_base<int, std::allocator<int> >::_Deque_impl", %"struct.std::_Deque_base<int, std::allocator<int> >::_Deque_impl"* %_M_impl7, i32 0, i32 1, !dbg !10272
  %4 = load i64, i64* %_M_map_size, align 8, !dbg !10272
  call void @_ZNSt11_Deque_baseIiSaIiEE17_M_deallocate_mapEPPim(%"class.std::_Deque_base.24"* %this1, i32** %3, i64 %4) #3, !dbg !10273
  br label %if.end, !dbg !10274

if.end:                                           ; preds = %if.then, %entry
  %_M_impl8 = getelementptr inbounds %"class.std::_Deque_base.24", %"class.std::_Deque_base.24"* %this1, i32 0, i32 0, !dbg !10275
  call void @_ZNSt11_Deque_baseIiSaIiEE11_Deque_implD2Ev(%"struct.std::_Deque_base<int, std::allocator<int> >::_Deque_impl"* %_M_impl8) #3, !dbg !10275
  ret void, !dbg !10276
}

; Function Attrs: noinline nounwind optnone uwtable
define linkonce_odr void @_ZNSt15_Deque_iteratorIiRiPiEC2ERKS2_(%"struct.std::_Deque_iterator.28"* %this, %"struct.std::_Deque_iterator.28"* dereferenceable(32) %__x) unnamed_addr #4 comdat align 2 !dbg !10277 !prof !9942 {
entry:
  %this.addr = alloca %"struct.std::_Deque_iterator.28"*, align 8
  %__x.addr = alloca %"struct.std::_Deque_iterator.28"*, align 8
  store %"struct.std::_Deque_iterator.28"* %this, %"struct.std::_Deque_iterator.28"** %this.addr, align 8
  call void @llvm.dbg.declare(metadata %"struct.std::_Deque_iterator.28"** %this.addr, metadata !10278, metadata !DIExpression()), !dbg !10279
  store %"struct.std::_Deque_iterator.28"* %__x, %"struct.std::_Deque_iterator.28"** %__x.addr, align 8
  call void @llvm.dbg.declare(metadata %"struct.std::_Deque_iterator.28"** %__x.addr, metadata !10280, metadata !DIExpression()), !dbg !10281
  %this1 = load %"struct.std::_Deque_iterator.28"*, %"struct.std::_Deque_iterator.28"** %this.addr, align 8
  %_M_cur = getelementptr inbounds %"struct.std::_Deque_iterator.28", %"struct.std::_Deque_iterator.28"* %this1, i32 0, i32 0, !dbg !10282
  %0 = load %"struct.std::_Deque_iterator.28"*, %"struct.std::_Deque_iterator.28"** %__x.addr, align 8, !dbg !10283
  %_M_cur2 = getelementptr inbounds %"struct.std::_Deque_iterator.28", %"struct.std::_Deque_iterator.28"* %0, i32 0, i32 0, !dbg !10284
  %1 = load i32*, i32** %_M_cur2, align 8, !dbg !10284
  store i32* %1, i32** %_M_cur, align 8, !dbg !10282
  %_M_first = getelementptr inbounds %"struct.std::_Deque_iterator.28", %"struct.std::_Deque_iterator.28"* %this1, i32 0, i32 1, !dbg !10285
  %2 = load %"struct.std::_Deque_iterator.28"*, %"struct.std::_Deque_iterator.28"** %__x.addr, align 8, !dbg !10286
  %_M_first3 = getelementptr inbounds %"struct.std::_Deque_iterator.28", %"struct.std::_Deque_iterator.28"* %2, i32 0, i32 1, !dbg !10287
  %3 = load i32*, i32** %_M_first3, align 8, !dbg !10287
  store i32* %3, i32** %_M_first, align 8, !dbg !10285
  %_M_last = getelementptr inbounds %"struct.std::_Deque_iterator.28", %"struct.std::_Deque_iterator.28"* %this1, i32 0, i32 2, !dbg !10288
  %4 = load %"struct.std::_Deque_iterator.28"*, %"struct.std::_Deque_iterator.28"** %__x.addr, align 8, !dbg !10289
  %_M_last4 = getelementptr inbounds %"struct.std::_Deque_iterator.28", %"struct.std::_Deque_iterator.28"* %4, i32 0, i32 2, !dbg !10290
  %5 = load i32*, i32** %_M_last4, align 8, !dbg !10290
  store i32* %5, i32** %_M_last, align 8, !dbg !10288
  %_M_node = getelementptr inbounds %"struct.std::_Deque_iterator.28", %"struct.std::_Deque_iterator.28"* %this1, i32 0, i32 3, !dbg !10291
  %6 = load %"struct.std::_Deque_iterator.28"*, %"struct.std::_Deque_iterator.28"** %__x.addr, align 8, !dbg !10292
  %_M_node5 = getelementptr inbounds %"struct.std::_Deque_iterator.28", %"struct.std::_Deque_iterator.28"* %6, i32 0, i32 3, !dbg !10293
  %7 = load i32**, i32*** %_M_node5, align 8, !dbg !10293
  store i32** %7, i32*** %_M_node, align 8, !dbg !10291
  ret void, !dbg !10294
}

; Function Attrs: noinline nounwind optnone uwtable
define linkonce_odr void @_ZNSt11_Deque_baseIiSaIiEE16_M_destroy_nodesEPPiS3_(%"class.std::_Deque_base.24"* %this, i32** %__nstart, i32** %__nfinish) #4 comdat align 2 !dbg !10295 !prof !8748 {
entry:
  %this.addr = alloca %"class.std::_Deque_base.24"*, align 8
  %__nstart.addr = alloca i32**, align 8
  %__nfinish.addr = alloca i32**, align 8
  %__n = alloca i32**, align 8
  store %"class.std::_Deque_base.24"* %this, %"class.std::_Deque_base.24"** %this.addr, align 8
  call void @llvm.dbg.declare(metadata %"class.std::_Deque_base.24"** %this.addr, metadata !10296, metadata !DIExpression()), !dbg !10297
  store i32** %__nstart, i32*** %__nstart.addr, align 8
  call void @llvm.dbg.declare(metadata i32*** %__nstart.addr, metadata !10298, metadata !DIExpression()), !dbg !10299
  store i32** %__nfinish, i32*** %__nfinish.addr, align 8
  call void @llvm.dbg.declare(metadata i32*** %__nfinish.addr, metadata !10300, metadata !DIExpression()), !dbg !10301
  %this1 = load %"class.std::_Deque_base.24"*, %"class.std::_Deque_base.24"** %this.addr, align 8
  call void @llvm.dbg.declare(metadata i32*** %__n, metadata !10302, metadata !DIExpression()), !dbg !10304
  %0 = load i32**, i32*** %__nstart.addr, align 8, !dbg !10305
  store i32** %0, i32*** %__n, align 8, !dbg !10304
  br label %for.cond, !dbg !10306

for.cond:                                         ; preds = %for.inc, %entry
  %1 = load i32**, i32*** %__n, align 8, !dbg !10307
  %2 = load i32**, i32*** %__nfinish.addr, align 8, !dbg !10309
  %cmp = icmp ult i32** %1, %2, !dbg !10310
  br i1 %cmp, label %for.body, label %for.end, !dbg !10311, !prof !10003

for.body:                                         ; preds = %for.cond
  %3 = load i32**, i32*** %__n, align 8, !dbg !10312
  %4 = load i32*, i32** %3, align 8, !dbg !10313
  call void @_ZNSt11_Deque_baseIiSaIiEE18_M_deallocate_nodeEPi(%"class.std::_Deque_base.24"* %this1, i32* %4) #3, !dbg !10314
  br label %for.inc, !dbg !10314

for.inc:                                          ; preds = %for.body
  %5 = load i32**, i32*** %__n, align 8, !dbg !10315
  %incdec.ptr = getelementptr inbounds i32*, i32** %5, i32 1, !dbg !10315
  store i32** %incdec.ptr, i32*** %__n, align 8, !dbg !10315
  br label %for.cond, !dbg !10316, !llvm.loop !10317

for.end:                                          ; preds = %for.cond
  ret void, !dbg !10319
}

; Function Attrs: noinline nounwind optnone uwtable
define linkonce_odr void @_ZNSt11_Deque_baseIiSaIiEE17_M_deallocate_mapEPPim(%"class.std::_Deque_base.24"* %this, i32** %__p, i64 %__n) #4 comdat align 2 !dbg !10320 !prof !8748 {
entry:
  %this.addr = alloca %"class.std::_Deque_base.24"*, align 8
  %__p.addr = alloca i32**, align 8
  %__n.addr = alloca i64, align 8
  %__map_alloc = alloca %"class.std::allocator.29", align 1
  store %"class.std::_Deque_base.24"* %this, %"class.std::_Deque_base.24"** %this.addr, align 8
  call void @llvm.dbg.declare(metadata %"class.std::_Deque_base.24"** %this.addr, metadata !10321, metadata !DIExpression()), !dbg !10322
  store i32** %__p, i32*** %__p.addr, align 8
  call void @llvm.dbg.declare(metadata i32*** %__p.addr, metadata !10323, metadata !DIExpression()), !dbg !10324
  store i64 %__n, i64* %__n.addr, align 8
  call void @llvm.dbg.declare(metadata i64* %__n.addr, metadata !10325, metadata !DIExpression()), !dbg !10326
  %this1 = load %"class.std::_Deque_base.24"*, %"class.std::_Deque_base.24"** %this.addr, align 8
  call void @llvm.dbg.declare(metadata %"class.std::allocator.29"* %__map_alloc, metadata !10327, metadata !DIExpression()), !dbg !10328
  call void @_ZNKSt11_Deque_baseIiSaIiEE20_M_get_map_allocatorEv(%"class.std::allocator.29"* sret %__map_alloc, %"class.std::_Deque_base.24"* %this1) #3, !dbg !10329
  %0 = load i32**, i32*** %__p.addr, align 8, !dbg !10330
  %1 = load i64, i64* %__n.addr, align 8, !dbg !10331
  call void @_ZNSt16allocator_traitsISaIPiEE10deallocateERS1_PS0_m(%"class.std::allocator.29"* dereferenceable(1) %__map_alloc, i32** %0, i64 %1), !dbg !10332
  call void @_ZNSaIPiED2Ev(%"class.std::allocator.29"* %__map_alloc) #3, !dbg !10333
  ret void, !dbg !10333
}

; Function Attrs: noinline nounwind optnone uwtable
define linkonce_odr void @_ZNSt11_Deque_baseIiSaIiEE11_Deque_implD2Ev(%"struct.std::_Deque_base<int, std::allocator<int> >::_Deque_impl"* %this) unnamed_addr #4 comdat align 2 !dbg !10334 {
entry:
  %this.addr = alloca %"struct.std::_Deque_base<int, std::allocator<int> >::_Deque_impl"*, align 8
  store %"struct.std::_Deque_base<int, std::allocator<int> >::_Deque_impl"* %this, %"struct.std::_Deque_base<int, std::allocator<int> >::_Deque_impl"** %this.addr, align 8
  call void @llvm.dbg.declare(metadata %"struct.std::_Deque_base<int, std::allocator<int> >::_Deque_impl"** %this.addr, metadata !10336, metadata !DIExpression()), !dbg !10337
  %this1 = load %"struct.std::_Deque_base<int, std::allocator<int> >::_Deque_impl"*, %"struct.std::_Deque_base<int, std::allocator<int> >::_Deque_impl"** %this.addr, align 8
  %0 = bitcast %"struct.std::_Deque_base<int, std::allocator<int> >::_Deque_impl"* %this1 to %"class.std::allocator.25"*, !dbg !10338
  call void @_ZNSaIiED2Ev(%"class.std::allocator.25"* %0) #3, !dbg !10338
  ret void, !dbg !10340
}

; Function Attrs: noinline nounwind optnone uwtable
define linkonce_odr void @_ZNSt11_Deque_baseIiSaIiEE18_M_deallocate_nodeEPi(%"class.std::_Deque_base.24"* %this, i32* %__p) #4 comdat align 2 !dbg !10341 !prof !8748 {
entry:
  %this.addr = alloca %"class.std::_Deque_base.24"*, align 8
  %__p.addr = alloca i32*, align 8
  store %"class.std::_Deque_base.24"* %this, %"class.std::_Deque_base.24"** %this.addr, align 8
  call void @llvm.dbg.declare(metadata %"class.std::_Deque_base.24"** %this.addr, metadata !10342, metadata !DIExpression()), !dbg !10343
  store i32* %__p, i32** %__p.addr, align 8
  call void @llvm.dbg.declare(metadata i32** %__p.addr, metadata !10344, metadata !DIExpression()), !dbg !10345
  %this1 = load %"class.std::_Deque_base.24"*, %"class.std::_Deque_base.24"** %this.addr, align 8
  %_M_impl = getelementptr inbounds %"class.std::_Deque_base.24", %"class.std::_Deque_base.24"* %this1, i32 0, i32 0, !dbg !10346
  %0 = bitcast %"struct.std::_Deque_base<int, std::allocator<int> >::_Deque_impl"* %_M_impl to %"class.std::allocator.25"*, !dbg !10346
  %1 = load i32*, i32** %__p.addr, align 8, !dbg !10347
  %call = call i64 @_ZSt16__deque_buf_sizem(i64 4), !dbg !10348
  call void @_ZNSt16allocator_traitsISaIiEE10deallocateERS0_Pim(%"class.std::allocator.25"* dereferenceable(1) %0, i32* %1, i64 %call), !dbg !10349
  ret void, !dbg !10350
}

; Function Attrs: noinline nounwind optnone uwtable
define linkonce_odr void @_ZNSt16allocator_traitsISaIiEE10deallocateERS0_Pim(%"class.std::allocator.25"* dereferenceable(1) %__a, i32* %__p, i64 %__n) #4 comdat align 2 !dbg !10351 !prof !8748 {
entry:
  %__a.addr = alloca %"class.std::allocator.25"*, align 8
  %__p.addr = alloca i32*, align 8
  %__n.addr = alloca i64, align 8
  store %"class.std::allocator.25"* %__a, %"class.std::allocator.25"** %__a.addr, align 8
  call void @llvm.dbg.declare(metadata %"class.std::allocator.25"** %__a.addr, metadata !10352, metadata !DIExpression()), !dbg !10353
  store i32* %__p, i32** %__p.addr, align 8
  call void @llvm.dbg.declare(metadata i32** %__p.addr, metadata !10354, metadata !DIExpression()), !dbg !10355
  store i64 %__n, i64* %__n.addr, align 8
  call void @llvm.dbg.declare(metadata i64* %__n.addr, metadata !10356, metadata !DIExpression()), !dbg !10357
  %0 = load %"class.std::allocator.25"*, %"class.std::allocator.25"** %__a.addr, align 8, !dbg !10358
  %1 = bitcast %"class.std::allocator.25"* %0 to %"class.__gnu_cxx::new_allocator.26"*, !dbg !10358
  %2 = load i32*, i32** %__p.addr, align 8, !dbg !10359
  %3 = load i64, i64* %__n.addr, align 8, !dbg !10360
  call void @_ZN9__gnu_cxx13new_allocatorIiE10deallocateEPim(%"class.__gnu_cxx::new_allocator.26"* %1, i32* %2, i64 %3), !dbg !10361
  ret void, !dbg !10362
}

; Function Attrs: noinline nounwind optnone uwtable
define linkonce_odr void @_ZN9__gnu_cxx13new_allocatorIiE10deallocateEPim(%"class.__gnu_cxx::new_allocator.26"* %this, i32* %__p, i64) #4 comdat align 2 !dbg !10363 !prof !8748 {
entry:
  %this.addr = alloca %"class.__gnu_cxx::new_allocator.26"*, align 8
  %__p.addr = alloca i32*, align 8
  %.addr = alloca i64, align 8
  store %"class.__gnu_cxx::new_allocator.26"* %this, %"class.__gnu_cxx::new_allocator.26"** %this.addr, align 8
  call void @llvm.dbg.declare(metadata %"class.__gnu_cxx::new_allocator.26"** %this.addr, metadata !10364, metadata !DIExpression()), !dbg !10365
  store i32* %__p, i32** %__p.addr, align 8
  call void @llvm.dbg.declare(metadata i32** %__p.addr, metadata !10366, metadata !DIExpression()), !dbg !10367
  store i64 %0, i64* %.addr, align 8
  call void @llvm.dbg.declare(metadata i64* %.addr, metadata !10368, metadata !DIExpression()), !dbg !10369
  %this1 = load %"class.__gnu_cxx::new_allocator.26"*, %"class.__gnu_cxx::new_allocator.26"** %this.addr, align 8
  %1 = load i32*, i32** %__p.addr, align 8, !dbg !10370
  %2 = bitcast i32* %1 to i8*, !dbg !10370
  call void @_ZdlPv(i8* %2) #3, !dbg !10371
  ret void, !dbg !10372
}

; Function Attrs: noinline nounwind optnone uwtable
define linkonce_odr void @_ZNSt16allocator_traitsISaIPiEE10deallocateERS1_PS0_m(%"class.std::allocator.29"* dereferenceable(1) %__a, i32** %__p, i64 %__n) #4 comdat align 2 !dbg !10373 !prof !8748 {
entry:
  %__a.addr = alloca %"class.std::allocator.29"*, align 8
  %__p.addr = alloca i32**, align 8
  %__n.addr = alloca i64, align 8
  store %"class.std::allocator.29"* %__a, %"class.std::allocator.29"** %__a.addr, align 8
  call void @llvm.dbg.declare(metadata %"class.std::allocator.29"** %__a.addr, metadata !10374, metadata !DIExpression()), !dbg !10375
  store i32** %__p, i32*** %__p.addr, align 8
  call void @llvm.dbg.declare(metadata i32*** %__p.addr, metadata !10376, metadata !DIExpression()), !dbg !10377
  store i64 %__n, i64* %__n.addr, align 8
  call void @llvm.dbg.declare(metadata i64* %__n.addr, metadata !10378, metadata !DIExpression()), !dbg !10379
  %0 = load %"class.std::allocator.29"*, %"class.std::allocator.29"** %__a.addr, align 8, !dbg !10380
  %1 = bitcast %"class.std::allocator.29"* %0 to %"class.__gnu_cxx::new_allocator.30"*, !dbg !10380
  %2 = load i32**, i32*** %__p.addr, align 8, !dbg !10381
  %3 = load i64, i64* %__n.addr, align 8, !dbg !10382
  call void @_ZN9__gnu_cxx13new_allocatorIPiE10deallocateEPS1_m(%"class.__gnu_cxx::new_allocator.30"* %1, i32** %2, i64 %3), !dbg !10383
  ret void, !dbg !10384
}

; Function Attrs: noinline nounwind optnone uwtable
define linkonce_odr void @_ZN9__gnu_cxx13new_allocatorIPiE10deallocateEPS1_m(%"class.__gnu_cxx::new_allocator.30"* %this, i32** %__p, i64) #4 comdat align 2 !dbg !10385 !prof !8748 {
entry:
  %this.addr = alloca %"class.__gnu_cxx::new_allocator.30"*, align 8
  %__p.addr = alloca i32**, align 8
  %.addr = alloca i64, align 8
  store %"class.__gnu_cxx::new_allocator.30"* %this, %"class.__gnu_cxx::new_allocator.30"** %this.addr, align 8
  call void @llvm.dbg.declare(metadata %"class.__gnu_cxx::new_allocator.30"** %this.addr, metadata !10386, metadata !DIExpression()), !dbg !10387
  store i32** %__p, i32*** %__p.addr, align 8
  call void @llvm.dbg.declare(metadata i32*** %__p.addr, metadata !10388, metadata !DIExpression()), !dbg !10389
  store i64 %0, i64* %.addr, align 8
  call void @llvm.dbg.declare(metadata i64* %.addr, metadata !10390, metadata !DIExpression()), !dbg !10391
  %this1 = load %"class.__gnu_cxx::new_allocator.30"*, %"class.__gnu_cxx::new_allocator.30"** %this.addr, align 8
  %1 = load i32**, i32*** %__p.addr, align 8, !dbg !10392
  %2 = bitcast i32** %1 to i8*, !dbg !10392
  call void @_ZdlPv(i8* %2) #3, !dbg !10393
  ret void, !dbg !10394
}

; Function Attrs: noinline nounwind optnone uwtable
define linkonce_odr void @_ZNSaIiED2Ev(%"class.std::allocator.25"* %this) unnamed_addr #4 comdat align 2 !dbg !10395 !prof !8748 {
entry:
  %this.addr = alloca %"class.std::allocator.25"*, align 8
  store %"class.std::allocator.25"* %this, %"class.std::allocator.25"** %this.addr, align 8
  call void @llvm.dbg.declare(metadata %"class.std::allocator.25"** %this.addr, metadata !10396, metadata !DIExpression()), !dbg !10397
  %this1 = load %"class.std::allocator.25"*, %"class.std::allocator.25"** %this.addr, align 8
  %0 = bitcast %"class.std::allocator.25"* %this1 to %"class.__gnu_cxx::new_allocator.26"*, !dbg !10398
  call void @_ZN9__gnu_cxx13new_allocatorIiED2Ev(%"class.__gnu_cxx::new_allocator.26"* %0) #3, !dbg !10398
  ret void, !dbg !10400
}

; Function Attrs: noinline nounwind optnone uwtable
define linkonce_odr void @_ZN9__gnu_cxx13new_allocatorIiED2Ev(%"class.__gnu_cxx::new_allocator.26"* %this) unnamed_addr #4 comdat align 2 !dbg !10401 !prof !8748 {
entry:
  %this.addr = alloca %"class.__gnu_cxx::new_allocator.26"*, align 8
  store %"class.__gnu_cxx::new_allocator.26"* %this, %"class.__gnu_cxx::new_allocator.26"** %this.addr, align 8
  call void @llvm.dbg.declare(metadata %"class.__gnu_cxx::new_allocator.26"** %this.addr, metadata !10402, metadata !DIExpression()), !dbg !10403
  %this1 = load %"class.__gnu_cxx::new_allocator.26"*, %"class.__gnu_cxx::new_allocator.26"** %this.addr, align 8
  ret void, !dbg !10404
}

; Function Attrs: noinline nounwind optnone uwtable
define linkonce_odr zeroext i1 @_ZNKSt5dequeI7ap_axisILi32ELi2ELi5ELi6EESaIS1_EE5emptyEv(%"class.std::deque"* %this) #4 comdat align 2 !dbg !10405 !prof !10618 {
entry:
  %this.addr = alloca %"class.std::deque"*, align 8
  store %"class.std::deque"* %this, %"class.std::deque"** %this.addr, align 8
  call void @llvm.dbg.declare(metadata %"class.std::deque"** %this.addr, metadata !10619, metadata !DIExpression()), !dbg !10621
  %this1 = load %"class.std::deque"*, %"class.std::deque"** %this.addr, align 8
  %0 = bitcast %"class.std::deque"* %this1 to %"class.std::_Deque_base"*, !dbg !10622
  %_M_impl = getelementptr inbounds %"class.std::_Deque_base", %"class.std::_Deque_base"* %0, i32 0, i32 0, !dbg !10622
  %_M_finish = getelementptr inbounds %"struct.std::_Deque_base<ap_axis<32, 2, 5, 6>, std::allocator<ap_axis<32, 2, 5, 6> > >::_Deque_impl", %"struct.std::_Deque_base<ap_axis<32, 2, 5, 6>, std::allocator<ap_axis<32, 2, 5, 6> > >::_Deque_impl"* %_M_impl, i32 0, i32 3, !dbg !10623
  %1 = bitcast %"class.std::deque"* %this1 to %"class.std::_Deque_base"*, !dbg !10624
  %_M_impl2 = getelementptr inbounds %"class.std::_Deque_base", %"class.std::_Deque_base"* %1, i32 0, i32 0, !dbg !10624
  %_M_start = getelementptr inbounds %"struct.std::_Deque_base<ap_axis<32, 2, 5, 6>, std::allocator<ap_axis<32, 2, 5, 6> > >::_Deque_impl", %"struct.std::_Deque_base<ap_axis<32, 2, 5, 6>, std::allocator<ap_axis<32, 2, 5, 6> > >::_Deque_impl"* %_M_impl2, i32 0, i32 2, !dbg !10625
  %call = call zeroext i1 @_ZSteqI7ap_axisILi32ELi2ELi5ELi6EERS1_PS1_EbRKSt15_Deque_iteratorIT_T0_T1_ESA_(%"struct.std::_Deque_iterator"* dereferenceable(32) %_M_finish, %"struct.std::_Deque_iterator"* dereferenceable(32) %_M_start) #3, !dbg !10626
  ret i1 %call, !dbg !10627
}

; Function Attrs: argmemonly nounwind
declare void @llvm.memset.p0i8.i64(i8* nocapture writeonly, i8, i64, i1) #9

; Function Attrs: noinline nounwind optnone uwtable
define linkonce_odr dereferenceable(12) %struct.ap_axis* @_ZNSt5dequeI7ap_axisILi32ELi2ELi5ELi6EESaIS1_EE5frontEv(%"class.std::deque"* %this) #4 comdat align 2 !dbg !10628 !prof !9038 {
entry:
  %this.addr = alloca %"class.std::deque"*, align 8
  %tmp = alloca %"struct.std::_Deque_iterator", align 8
  store %"class.std::deque"* %this, %"class.std::deque"** %this.addr, align 8
  call void @llvm.dbg.declare(metadata %"class.std::deque"** %this.addr, metadata !10629, metadata !DIExpression()), !dbg !10631
  %this1 = load %"class.std::deque"*, %"class.std::deque"** %this.addr, align 8
  call void @_ZNSt5dequeI7ap_axisILi32ELi2ELi5ELi6EESaIS1_EE5beginEv(%"struct.std::_Deque_iterator"* sret %tmp, %"class.std::deque"* %this1) #3, !dbg !10632
  %call = call dereferenceable(12) %struct.ap_axis* @_ZNKSt15_Deque_iteratorI7ap_axisILi32ELi2ELi5ELi6EERS1_PS1_EdeEv(%"struct.std::_Deque_iterator"* %tmp) #3, !dbg !10633
  ret %struct.ap_axis* %call, !dbg !10634
}

; Function Attrs: noinline nounwind optnone uwtable
define linkonce_odr dereferenceable(12) %struct.ap_axis* @_ZN7ap_axisILi32ELi2ELi5ELi6EEaSERKS0_(%struct.ap_axis* %this, %struct.ap_axis* dereferenceable(12)) #4 comdat align 2 !dbg !10635 {
entry:
  %this.addr = alloca %struct.ap_axis*, align 8
  %.addr = alloca %struct.ap_axis*, align 8
  store %struct.ap_axis* %this, %struct.ap_axis** %this.addr, align 8
  call void @llvm.dbg.declare(metadata %struct.ap_axis** %this.addr, metadata !10639, metadata !DIExpression()), !dbg !10640
  store %struct.ap_axis* %0, %struct.ap_axis** %.addr, align 8
  call void @llvm.dbg.declare(metadata %struct.ap_axis** %.addr, metadata !10641, metadata !DIExpression()), !dbg !10640
  %this1 = load %struct.ap_axis*, %struct.ap_axis** %this.addr, align 8
  %data = getelementptr inbounds %struct.ap_axis, %struct.ap_axis* %this1, i32 0, i32 0, !dbg !10642
  %1 = load %struct.ap_axis*, %struct.ap_axis** %.addr, align 8, !dbg !10642
  %data2 = getelementptr inbounds %struct.ap_axis, %struct.ap_axis* %1, i32 0, i32 0, !dbg !10642
  %call = call dereferenceable(4) %struct.ap_int* @_ZN6ap_intILi32EEaSERKS0_(%struct.ap_int* %data, %struct.ap_int* dereferenceable(4) %data2), !dbg !10642
  %keep = getelementptr inbounds %struct.ap_axis, %struct.ap_axis* %this1, i32 0, i32 1, !dbg !10642
  %2 = load %struct.ap_axis*, %struct.ap_axis** %.addr, align 8, !dbg !10642
  %keep3 = getelementptr inbounds %struct.ap_axis, %struct.ap_axis* %2, i32 0, i32 1, !dbg !10642
  %call4 = call dereferenceable(1) %struct.ap_uint* @_ZN7ap_uintILi4EEaSERKS0_(%struct.ap_uint* %keep, %struct.ap_uint* dereferenceable(1) %keep3), !dbg !10642
  %strb = getelementptr inbounds %struct.ap_axis, %struct.ap_axis* %this1, i32 0, i32 2, !dbg !10642
  %3 = load %struct.ap_axis*, %struct.ap_axis** %.addr, align 8, !dbg !10642
  %strb5 = getelementptr inbounds %struct.ap_axis, %struct.ap_axis* %3, i32 0, i32 2, !dbg !10642
  %call6 = call dereferenceable(1) %struct.ap_uint* @_ZN7ap_uintILi4EEaSERKS0_(%struct.ap_uint* %strb, %struct.ap_uint* dereferenceable(1) %strb5), !dbg !10642
  %user = getelementptr inbounds %struct.ap_axis, %struct.ap_axis* %this1, i32 0, i32 3, !dbg !10642
  %4 = load %struct.ap_axis*, %struct.ap_axis** %.addr, align 8, !dbg !10642
  %user7 = getelementptr inbounds %struct.ap_axis, %struct.ap_axis* %4, i32 0, i32 3, !dbg !10642
  %call8 = call dereferenceable(1) %struct.ap_uint.6* @_ZN7ap_uintILi2EEaSERKS0_(%struct.ap_uint.6* %user, %struct.ap_uint.6* dereferenceable(1) %user7), !dbg !10642
  %last = getelementptr inbounds %struct.ap_axis, %struct.ap_axis* %this1, i32 0, i32 4, !dbg !10642
  %5 = load %struct.ap_axis*, %struct.ap_axis** %.addr, align 8, !dbg !10642
  %last9 = getelementptr inbounds %struct.ap_axis, %struct.ap_axis* %5, i32 0, i32 4, !dbg !10642
  %call10 = call dereferenceable(1) %struct.ap_uint.10* @_ZN7ap_uintILi1EEaSERKS0_(%struct.ap_uint.10* %last, %struct.ap_uint.10* dereferenceable(1) %last9), !dbg !10642
  %id = getelementptr inbounds %struct.ap_axis, %struct.ap_axis* %this1, i32 0, i32 5, !dbg !10642
  %6 = load %struct.ap_axis*, %struct.ap_axis** %.addr, align 8, !dbg !10642
  %id11 = getelementptr inbounds %struct.ap_axis, %struct.ap_axis* %6, i32 0, i32 5, !dbg !10642
  %call12 = call dereferenceable(1) %struct.ap_uint.14* @_ZN7ap_uintILi5EEaSERKS0_(%struct.ap_uint.14* %id, %struct.ap_uint.14* dereferenceable(1) %id11), !dbg !10642
  %dest = getelementptr inbounds %struct.ap_axis, %struct.ap_axis* %this1, i32 0, i32 6, !dbg !10642
  %7 = load %struct.ap_axis*, %struct.ap_axis** %.addr, align 8, !dbg !10642
  %dest13 = getelementptr inbounds %struct.ap_axis, %struct.ap_axis* %7, i32 0, i32 6, !dbg !10642
  %call14 = call dereferenceable(1) %struct.ap_uint.18* @_ZN7ap_uintILi6EEaSERKS0_(%struct.ap_uint.18* %dest, %struct.ap_uint.18* dereferenceable(1) %dest13), !dbg !10642
  ret %struct.ap_axis* %this1, !dbg !10642
}

; Function Attrs: noinline nounwind optnone uwtable
define linkonce_odr void @_ZNSt5dequeI7ap_axisILi32ELi2ELi5ELi6EESaIS1_EE9pop_frontEv(%"class.std::deque"* %this) #4 comdat align 2 !dbg !10644 !prof !9038 {
entry:
  %this.addr = alloca %"class.std::deque"*, align 8
  store %"class.std::deque"* %this, %"class.std::deque"** %this.addr, align 8
  call void @llvm.dbg.declare(metadata %"class.std::deque"** %this.addr, metadata !10645, metadata !DIExpression()), !dbg !10646
  %this1 = load %"class.std::deque"*, %"class.std::deque"** %this.addr, align 8
  %0 = bitcast %"class.std::deque"* %this1 to %"class.std::_Deque_base"*, !dbg !10647
  %_M_impl = getelementptr inbounds %"class.std::_Deque_base", %"class.std::_Deque_base"* %0, i32 0, i32 0, !dbg !10647
  %_M_start = getelementptr inbounds %"struct.std::_Deque_base<ap_axis<32, 2, 5, 6>, std::allocator<ap_axis<32, 2, 5, 6> > >::_Deque_impl", %"struct.std::_Deque_base<ap_axis<32, 2, 5, 6>, std::allocator<ap_axis<32, 2, 5, 6> > >::_Deque_impl"* %_M_impl, i32 0, i32 2, !dbg !10649
  %_M_cur = getelementptr inbounds %"struct.std::_Deque_iterator", %"struct.std::_Deque_iterator"* %_M_start, i32 0, i32 0, !dbg !10650
  %1 = load %struct.ap_axis*, %struct.ap_axis** %_M_cur, align 8, !dbg !10650
  %2 = bitcast %"class.std::deque"* %this1 to %"class.std::_Deque_base"*, !dbg !10651
  %_M_impl2 = getelementptr inbounds %"class.std::_Deque_base", %"class.std::_Deque_base"* %2, i32 0, i32 0, !dbg !10651
  %_M_start3 = getelementptr inbounds %"struct.std::_Deque_base<ap_axis<32, 2, 5, 6>, std::allocator<ap_axis<32, 2, 5, 6> > >::_Deque_impl", %"struct.std::_Deque_base<ap_axis<32, 2, 5, 6>, std::allocator<ap_axis<32, 2, 5, 6> > >::_Deque_impl"* %_M_impl2, i32 0, i32 2, !dbg !10652
  %_M_last = getelementptr inbounds %"struct.std::_Deque_iterator", %"struct.std::_Deque_iterator"* %_M_start3, i32 0, i32 2, !dbg !10653
  %3 = load %struct.ap_axis*, %struct.ap_axis** %_M_last, align 8, !dbg !10653
  %add.ptr = getelementptr inbounds %struct.ap_axis, %struct.ap_axis* %3, i64 -1, !dbg !10654
  %cmp = icmp ne %struct.ap_axis* %1, %add.ptr, !dbg !10655
  br i1 %cmp, label %if.then, label %if.else, !dbg !10656, !prof !10657

if.then:                                          ; preds = %entry
  %4 = bitcast %"class.std::deque"* %this1 to %"class.std::_Deque_base"*, !dbg !10658
  %_M_impl4 = getelementptr inbounds %"class.std::_Deque_base", %"class.std::_Deque_base"* %4, i32 0, i32 0, !dbg !10658
  %5 = bitcast %"struct.std::_Deque_base<ap_axis<32, 2, 5, 6>, std::allocator<ap_axis<32, 2, 5, 6> > >::_Deque_impl"* %_M_impl4 to %"class.std::allocator.0"*, !dbg !10660
  %6 = bitcast %"class.std::deque"* %this1 to %"class.std::_Deque_base"*, !dbg !10661
  %_M_impl5 = getelementptr inbounds %"class.std::_Deque_base", %"class.std::_Deque_base"* %6, i32 0, i32 0, !dbg !10661
  %_M_start6 = getelementptr inbounds %"struct.std::_Deque_base<ap_axis<32, 2, 5, 6>, std::allocator<ap_axis<32, 2, 5, 6> > >::_Deque_impl", %"struct.std::_Deque_base<ap_axis<32, 2, 5, 6>, std::allocator<ap_axis<32, 2, 5, 6> > >::_Deque_impl"* %_M_impl5, i32 0, i32 2, !dbg !10662
  %_M_cur7 = getelementptr inbounds %"struct.std::_Deque_iterator", %"struct.std::_Deque_iterator"* %_M_start6, i32 0, i32 0, !dbg !10663
  %7 = load %struct.ap_axis*, %struct.ap_axis** %_M_cur7, align 8, !dbg !10663
  call void @_ZNSt16allocator_traitsISaI7ap_axisILi32ELi2ELi5ELi6EEEE7destroyIS1_EEvRS2_PT_(%"class.std::allocator.0"* dereferenceable(1) %5, %struct.ap_axis* %7), !dbg !10664
  %8 = bitcast %"class.std::deque"* %this1 to %"class.std::_Deque_base"*, !dbg !10665
  %_M_impl8 = getelementptr inbounds %"class.std::_Deque_base", %"class.std::_Deque_base"* %8, i32 0, i32 0, !dbg !10665
  %_M_start9 = getelementptr inbounds %"struct.std::_Deque_base<ap_axis<32, 2, 5, 6>, std::allocator<ap_axis<32, 2, 5, 6> > >::_Deque_impl", %"struct.std::_Deque_base<ap_axis<32, 2, 5, 6>, std::allocator<ap_axis<32, 2, 5, 6> > >::_Deque_impl"* %_M_impl8, i32 0, i32 2, !dbg !10666
  %_M_cur10 = getelementptr inbounds %"struct.std::_Deque_iterator", %"struct.std::_Deque_iterator"* %_M_start9, i32 0, i32 0, !dbg !10667
  %9 = load %struct.ap_axis*, %struct.ap_axis** %_M_cur10, align 8, !dbg !10668
  %incdec.ptr = getelementptr inbounds %struct.ap_axis, %struct.ap_axis* %9, i32 1, !dbg !10668
  store %struct.ap_axis* %incdec.ptr, %struct.ap_axis** %_M_cur10, align 8, !dbg !10668
  br label %if.end, !dbg !10669

if.else:                                          ; preds = %entry
  call void @_ZNSt5dequeI7ap_axisILi32ELi2ELi5ELi6EESaIS1_EE16_M_pop_front_auxEv(%"class.std::deque"* %this1), !dbg !10670
  br label %if.end

if.end:                                           ; preds = %if.else, %if.then
  ret void, !dbg !10671
}

; Function Attrs: noinline nounwind optnone uwtable
define linkonce_odr zeroext i1 @_ZSteqI7ap_axisILi32ELi2ELi5ELi6EERS1_PS1_EbRKSt15_Deque_iteratorIT_T0_T1_ESA_(%"struct.std::_Deque_iterator"* dereferenceable(32) %__x, %"struct.std::_Deque_iterator"* dereferenceable(32) %__y) #4 comdat !dbg !10672 !prof !10618 {
entry:
  %__x.addr = alloca %"struct.std::_Deque_iterator"*, align 8
  %__y.addr = alloca %"struct.std::_Deque_iterator"*, align 8
  store %"struct.std::_Deque_iterator"* %__x, %"struct.std::_Deque_iterator"** %__x.addr, align 8
  call void @llvm.dbg.declare(metadata %"struct.std::_Deque_iterator"** %__x.addr, metadata !10676, metadata !DIExpression()), !dbg !10677
  store %"struct.std::_Deque_iterator"* %__y, %"struct.std::_Deque_iterator"** %__y.addr, align 8
  call void @llvm.dbg.declare(metadata %"struct.std::_Deque_iterator"** %__y.addr, metadata !10678, metadata !DIExpression()), !dbg !10679
  %0 = load %"struct.std::_Deque_iterator"*, %"struct.std::_Deque_iterator"** %__x.addr, align 8, !dbg !10680
  %_M_cur = getelementptr inbounds %"struct.std::_Deque_iterator", %"struct.std::_Deque_iterator"* %0, i32 0, i32 0, !dbg !10681
  %1 = load %struct.ap_axis*, %struct.ap_axis** %_M_cur, align 8, !dbg !10681
  %2 = load %"struct.std::_Deque_iterator"*, %"struct.std::_Deque_iterator"** %__y.addr, align 8, !dbg !10682
  %_M_cur1 = getelementptr inbounds %"struct.std::_Deque_iterator", %"struct.std::_Deque_iterator"* %2, i32 0, i32 0, !dbg !10683
  %3 = load %struct.ap_axis*, %struct.ap_axis** %_M_cur1, align 8, !dbg !10683
  %cmp = icmp eq %struct.ap_axis* %1, %3, !dbg !10684
  ret i1 %cmp, !dbg !10685
}

; Function Attrs: noinline nounwind optnone uwtable
define linkonce_odr void @_ZNSt5dequeI7ap_axisILi32ELi2ELi5ELi6EESaIS1_EE5beginEv(%"struct.std::_Deque_iterator"* noalias sret %agg.result, %"class.std::deque"* %this) #4 comdat align 2 !dbg !10686 !prof !10618 {
entry:
  %this.addr = alloca %"class.std::deque"*, align 8
  store %"class.std::deque"* %this, %"class.std::deque"** %this.addr, align 8
  call void @llvm.dbg.declare(metadata %"class.std::deque"** %this.addr, metadata !10687, metadata !DIExpression()), !dbg !10688
  %this1 = load %"class.std::deque"*, %"class.std::deque"** %this.addr, align 8
  %0 = bitcast %"class.std::deque"* %this1 to %"class.std::_Deque_base"*, !dbg !10689
  %_M_impl = getelementptr inbounds %"class.std::_Deque_base", %"class.std::_Deque_base"* %0, i32 0, i32 0, !dbg !10689
  %_M_start = getelementptr inbounds %"struct.std::_Deque_base<ap_axis<32, 2, 5, 6>, std::allocator<ap_axis<32, 2, 5, 6> > >::_Deque_impl", %"struct.std::_Deque_base<ap_axis<32, 2, 5, 6>, std::allocator<ap_axis<32, 2, 5, 6> > >::_Deque_impl"* %_M_impl, i32 0, i32 2, !dbg !10690
  call void @_ZNSt15_Deque_iteratorI7ap_axisILi32ELi2ELi5ELi6EERS1_PS1_EC2ERKS4_(%"struct.std::_Deque_iterator"* %agg.result, %"struct.std::_Deque_iterator"* dereferenceable(32) %_M_start) #3, !dbg !10691
  ret void, !dbg !10692
}

; Function Attrs: noinline nounwind optnone uwtable
define linkonce_odr dereferenceable(12) %struct.ap_axis* @_ZNKSt15_Deque_iteratorI7ap_axisILi32ELi2ELi5ELi6EERS1_PS1_EdeEv(%"struct.std::_Deque_iterator"* %this) #4 comdat align 2 !dbg !10693 !prof !9038 {
entry:
  %this.addr = alloca %"struct.std::_Deque_iterator"*, align 8
  store %"struct.std::_Deque_iterator"* %this, %"struct.std::_Deque_iterator"** %this.addr, align 8
  call void @llvm.dbg.declare(metadata %"struct.std::_Deque_iterator"** %this.addr, metadata !10694, metadata !DIExpression()), !dbg !10696
  %this1 = load %"struct.std::_Deque_iterator"*, %"struct.std::_Deque_iterator"** %this.addr, align 8
  %_M_cur = getelementptr inbounds %"struct.std::_Deque_iterator", %"struct.std::_Deque_iterator"* %this1, i32 0, i32 0, !dbg !10697
  %0 = load %struct.ap_axis*, %struct.ap_axis** %_M_cur, align 8, !dbg !10697
  ret %struct.ap_axis* %0, !dbg !10698
}

; Function Attrs: noinline nounwind optnone uwtable
define linkonce_odr void @_ZNSt15_Deque_iteratorI7ap_axisILi32ELi2ELi5ELi6EERS1_PS1_EC2ERKS4_(%"struct.std::_Deque_iterator"* %this, %"struct.std::_Deque_iterator"* dereferenceable(32) %__x) unnamed_addr #4 comdat align 2 !dbg !10699 !prof !9942 {
entry:
  %this.addr = alloca %"struct.std::_Deque_iterator"*, align 8
  %__x.addr = alloca %"struct.std::_Deque_iterator"*, align 8
  store %"struct.std::_Deque_iterator"* %this, %"struct.std::_Deque_iterator"** %this.addr, align 8
  call void @llvm.dbg.declare(metadata %"struct.std::_Deque_iterator"** %this.addr, metadata !10700, metadata !DIExpression()), !dbg !10702
  store %"struct.std::_Deque_iterator"* %__x, %"struct.std::_Deque_iterator"** %__x.addr, align 8
  call void @llvm.dbg.declare(metadata %"struct.std::_Deque_iterator"** %__x.addr, metadata !10703, metadata !DIExpression()), !dbg !10704
  %this1 = load %"struct.std::_Deque_iterator"*, %"struct.std::_Deque_iterator"** %this.addr, align 8
  %_M_cur = getelementptr inbounds %"struct.std::_Deque_iterator", %"struct.std::_Deque_iterator"* %this1, i32 0, i32 0, !dbg !10705
  %0 = load %"struct.std::_Deque_iterator"*, %"struct.std::_Deque_iterator"** %__x.addr, align 8, !dbg !10706
  %_M_cur2 = getelementptr inbounds %"struct.std::_Deque_iterator", %"struct.std::_Deque_iterator"* %0, i32 0, i32 0, !dbg !10707
  %1 = load %struct.ap_axis*, %struct.ap_axis** %_M_cur2, align 8, !dbg !10707
  store %struct.ap_axis* %1, %struct.ap_axis** %_M_cur, align 8, !dbg !10705
  %_M_first = getelementptr inbounds %"struct.std::_Deque_iterator", %"struct.std::_Deque_iterator"* %this1, i32 0, i32 1, !dbg !10708
  %2 = load %"struct.std::_Deque_iterator"*, %"struct.std::_Deque_iterator"** %__x.addr, align 8, !dbg !10709
  %_M_first3 = getelementptr inbounds %"struct.std::_Deque_iterator", %"struct.std::_Deque_iterator"* %2, i32 0, i32 1, !dbg !10710
  %3 = load %struct.ap_axis*, %struct.ap_axis** %_M_first3, align 8, !dbg !10710
  store %struct.ap_axis* %3, %struct.ap_axis** %_M_first, align 8, !dbg !10708
  %_M_last = getelementptr inbounds %"struct.std::_Deque_iterator", %"struct.std::_Deque_iterator"* %this1, i32 0, i32 2, !dbg !10711
  %4 = load %"struct.std::_Deque_iterator"*, %"struct.std::_Deque_iterator"** %__x.addr, align 8, !dbg !10712
  %_M_last4 = getelementptr inbounds %"struct.std::_Deque_iterator", %"struct.std::_Deque_iterator"* %4, i32 0, i32 2, !dbg !10713
  %5 = load %struct.ap_axis*, %struct.ap_axis** %_M_last4, align 8, !dbg !10713
  store %struct.ap_axis* %5, %struct.ap_axis** %_M_last, align 8, !dbg !10711
  %_M_node = getelementptr inbounds %"struct.std::_Deque_iterator", %"struct.std::_Deque_iterator"* %this1, i32 0, i32 3, !dbg !10714
  %6 = load %"struct.std::_Deque_iterator"*, %"struct.std::_Deque_iterator"** %__x.addr, align 8, !dbg !10715
  %_M_node5 = getelementptr inbounds %"struct.std::_Deque_iterator", %"struct.std::_Deque_iterator"* %6, i32 0, i32 3, !dbg !10716
  %7 = load %struct.ap_axis**, %struct.ap_axis*** %_M_node5, align 8, !dbg !10716
  store %struct.ap_axis** %7, %struct.ap_axis*** %_M_node, align 8, !dbg !10714
  ret void, !dbg !10717
}

; Function Attrs: noinline nounwind optnone uwtable
define linkonce_odr void @_ZNSt16allocator_traitsISaI7ap_axisILi32ELi2ELi5ELi6EEEE7destroyIS1_EEvRS2_PT_(%"class.std::allocator.0"* dereferenceable(1) %__a, %struct.ap_axis* %__p) #4 comdat align 2 !dbg !10718 !prof !9038 {
entry:
  %__a.addr = alloca %"class.std::allocator.0"*, align 8
  %__p.addr = alloca %struct.ap_axis*, align 8
  store %"class.std::allocator.0"* %__a, %"class.std::allocator.0"** %__a.addr, align 8
  call void @llvm.dbg.declare(metadata %"class.std::allocator.0"** %__a.addr, metadata !10724, metadata !DIExpression()), !dbg !10725
  store %struct.ap_axis* %__p, %struct.ap_axis** %__p.addr, align 8
  call void @llvm.dbg.declare(metadata %struct.ap_axis** %__p.addr, metadata !10726, metadata !DIExpression()), !dbg !10727
  %0 = load %"class.std::allocator.0"*, %"class.std::allocator.0"** %__a.addr, align 8, !dbg !10728
  %1 = bitcast %"class.std::allocator.0"* %0 to %"class.__gnu_cxx::new_allocator.1"*, !dbg !10728
  %2 = load %struct.ap_axis*, %struct.ap_axis** %__p.addr, align 8, !dbg !10729
  call void @_ZN9__gnu_cxx13new_allocatorI7ap_axisILi32ELi2ELi5ELi6EEE7destroyIS2_EEvPT_(%"class.__gnu_cxx::new_allocator.1"* %1, %struct.ap_axis* %2), !dbg !10730
  ret void, !dbg !10731
}

; Function Attrs: noinline nounwind optnone uwtable
define linkonce_odr void @_ZNSt5dequeI7ap_axisILi32ELi2ELi5ELi6EESaIS1_EE16_M_pop_front_auxEv(%"class.std::deque"* %this) #4 comdat align 2 !dbg !10732 !prof !9023 {
entry:
  %this.addr = alloca %"class.std::deque"*, align 8
  store %"class.std::deque"* %this, %"class.std::deque"** %this.addr, align 8
  call void @llvm.dbg.declare(metadata %"class.std::deque"** %this.addr, metadata !10734, metadata !DIExpression()), !dbg !10735
  %this1 = load %"class.std::deque"*, %"class.std::deque"** %this.addr, align 8
  %0 = bitcast %"class.std::deque"* %this1 to %"class.std::_Deque_base"*, !dbg !10736
  %call = call dereferenceable(1) %"class.std::allocator.0"* @_ZNSt11_Deque_baseI7ap_axisILi32ELi2ELi5ELi6EESaIS1_EE19_M_get_Tp_allocatorEv(%"class.std::_Deque_base"* %0) #3, !dbg !10736
  %1 = bitcast %"class.std::deque"* %this1 to %"class.std::_Deque_base"*, !dbg !10737
  %_M_impl = getelementptr inbounds %"class.std::_Deque_base", %"class.std::_Deque_base"* %1, i32 0, i32 0, !dbg !10737
  %_M_start = getelementptr inbounds %"struct.std::_Deque_base<ap_axis<32, 2, 5, 6>, std::allocator<ap_axis<32, 2, 5, 6> > >::_Deque_impl", %"struct.std::_Deque_base<ap_axis<32, 2, 5, 6>, std::allocator<ap_axis<32, 2, 5, 6> > >::_Deque_impl"* %_M_impl, i32 0, i32 2, !dbg !10738
  %_M_cur = getelementptr inbounds %"struct.std::_Deque_iterator", %"struct.std::_Deque_iterator"* %_M_start, i32 0, i32 0, !dbg !10739
  %2 = load %struct.ap_axis*, %struct.ap_axis** %_M_cur, align 8, !dbg !10739
  call void @_ZNSt16allocator_traitsISaI7ap_axisILi32ELi2ELi5ELi6EEEE7destroyIS1_EEvRS2_PT_(%"class.std::allocator.0"* dereferenceable(1) %call, %struct.ap_axis* %2), !dbg !10740
  %3 = bitcast %"class.std::deque"* %this1 to %"class.std::_Deque_base"*, !dbg !10741
  %4 = bitcast %"class.std::deque"* %this1 to %"class.std::_Deque_base"*, !dbg !10742
  %_M_impl2 = getelementptr inbounds %"class.std::_Deque_base", %"class.std::_Deque_base"* %4, i32 0, i32 0, !dbg !10742
  %_M_start3 = getelementptr inbounds %"struct.std::_Deque_base<ap_axis<32, 2, 5, 6>, std::allocator<ap_axis<32, 2, 5, 6> > >::_Deque_impl", %"struct.std::_Deque_base<ap_axis<32, 2, 5, 6>, std::allocator<ap_axis<32, 2, 5, 6> > >::_Deque_impl"* %_M_impl2, i32 0, i32 2, !dbg !10743
  %_M_first = getelementptr inbounds %"struct.std::_Deque_iterator", %"struct.std::_Deque_iterator"* %_M_start3, i32 0, i32 1, !dbg !10744
  %5 = load %struct.ap_axis*, %struct.ap_axis** %_M_first, align 8, !dbg !10744
  call void @_ZNSt11_Deque_baseI7ap_axisILi32ELi2ELi5ELi6EESaIS1_EE18_M_deallocate_nodeEPS1_(%"class.std::_Deque_base"* %3, %struct.ap_axis* %5) #3, !dbg !10741
  %6 = bitcast %"class.std::deque"* %this1 to %"class.std::_Deque_base"*, !dbg !10745
  %_M_impl4 = getelementptr inbounds %"class.std::_Deque_base", %"class.std::_Deque_base"* %6, i32 0, i32 0, !dbg !10745
  %_M_start5 = getelementptr inbounds %"struct.std::_Deque_base<ap_axis<32, 2, 5, 6>, std::allocator<ap_axis<32, 2, 5, 6> > >::_Deque_impl", %"struct.std::_Deque_base<ap_axis<32, 2, 5, 6>, std::allocator<ap_axis<32, 2, 5, 6> > >::_Deque_impl"* %_M_impl4, i32 0, i32 2, !dbg !10746
  %7 = bitcast %"class.std::deque"* %this1 to %"class.std::_Deque_base"*, !dbg !10747
  %_M_impl6 = getelementptr inbounds %"class.std::_Deque_base", %"class.std::_Deque_base"* %7, i32 0, i32 0, !dbg !10747
  %_M_start7 = getelementptr inbounds %"struct.std::_Deque_base<ap_axis<32, 2, 5, 6>, std::allocator<ap_axis<32, 2, 5, 6> > >::_Deque_impl", %"struct.std::_Deque_base<ap_axis<32, 2, 5, 6>, std::allocator<ap_axis<32, 2, 5, 6> > >::_Deque_impl"* %_M_impl6, i32 0, i32 2, !dbg !10748
  %_M_node = getelementptr inbounds %"struct.std::_Deque_iterator", %"struct.std::_Deque_iterator"* %_M_start7, i32 0, i32 3, !dbg !10749
  %8 = load %struct.ap_axis**, %struct.ap_axis*** %_M_node, align 8, !dbg !10749
  %add.ptr = getelementptr inbounds %struct.ap_axis*, %struct.ap_axis** %8, i64 1, !dbg !10750
  call void @_ZNSt15_Deque_iteratorI7ap_axisILi32ELi2ELi5ELi6EERS1_PS1_E11_M_set_nodeEPS3_(%"struct.std::_Deque_iterator"* %_M_start5, %struct.ap_axis** %add.ptr) #3, !dbg !10751
  %9 = bitcast %"class.std::deque"* %this1 to %"class.std::_Deque_base"*, !dbg !10752
  %_M_impl8 = getelementptr inbounds %"class.std::_Deque_base", %"class.std::_Deque_base"* %9, i32 0, i32 0, !dbg !10752
  %_M_start9 = getelementptr inbounds %"struct.std::_Deque_base<ap_axis<32, 2, 5, 6>, std::allocator<ap_axis<32, 2, 5, 6> > >::_Deque_impl", %"struct.std::_Deque_base<ap_axis<32, 2, 5, 6>, std::allocator<ap_axis<32, 2, 5, 6> > >::_Deque_impl"* %_M_impl8, i32 0, i32 2, !dbg !10753
  %_M_first10 = getelementptr inbounds %"struct.std::_Deque_iterator", %"struct.std::_Deque_iterator"* %_M_start9, i32 0, i32 1, !dbg !10754
  %10 = load %struct.ap_axis*, %struct.ap_axis** %_M_first10, align 8, !dbg !10754
  %11 = bitcast %"class.std::deque"* %this1 to %"class.std::_Deque_base"*, !dbg !10755
  %_M_impl11 = getelementptr inbounds %"class.std::_Deque_base", %"class.std::_Deque_base"* %11, i32 0, i32 0, !dbg !10755
  %_M_start12 = getelementptr inbounds %"struct.std::_Deque_base<ap_axis<32, 2, 5, 6>, std::allocator<ap_axis<32, 2, 5, 6> > >::_Deque_impl", %"struct.std::_Deque_base<ap_axis<32, 2, 5, 6>, std::allocator<ap_axis<32, 2, 5, 6> > >::_Deque_impl"* %_M_impl11, i32 0, i32 2, !dbg !10756
  %_M_cur13 = getelementptr inbounds %"struct.std::_Deque_iterator", %"struct.std::_Deque_iterator"* %_M_start12, i32 0, i32 0, !dbg !10757
  store %struct.ap_axis* %10, %struct.ap_axis** %_M_cur13, align 8, !dbg !10758
  ret void, !dbg !10759
}

; Function Attrs: noinline nounwind optnone uwtable
define linkonce_odr void @_ZN9__gnu_cxx13new_allocatorI7ap_axisILi32ELi2ELi5ELi6EEE7destroyIS2_EEvPT_(%"class.__gnu_cxx::new_allocator.1"* %this, %struct.ap_axis* %__p) #4 comdat align 2 !dbg !10760 !prof !9038 {
entry:
  %this.addr = alloca %"class.__gnu_cxx::new_allocator.1"*, align 8
  %__p.addr = alloca %struct.ap_axis*, align 8
  store %"class.__gnu_cxx::new_allocator.1"* %this, %"class.__gnu_cxx::new_allocator.1"** %this.addr, align 8
  call void @llvm.dbg.declare(metadata %"class.__gnu_cxx::new_allocator.1"** %this.addr, metadata !10764, metadata !DIExpression()), !dbg !10766
  store %struct.ap_axis* %__p, %struct.ap_axis** %__p.addr, align 8
  call void @llvm.dbg.declare(metadata %struct.ap_axis** %__p.addr, metadata !10767, metadata !DIExpression()), !dbg !10768
  %this1 = load %"class.__gnu_cxx::new_allocator.1"*, %"class.__gnu_cxx::new_allocator.1"** %this.addr, align 8
  %0 = load %struct.ap_axis*, %struct.ap_axis** %__p.addr, align 8, !dbg !10769
  call void @_ZN7ap_axisILi32ELi2ELi5ELi6EED2Ev(%struct.ap_axis* %0) #3, !dbg !10770
  ret void, !dbg !10771
}

; Function Attrs: noinline nounwind optnone uwtable
define linkonce_odr dereferenceable(1) %"class.std::allocator.0"* @_ZNSt11_Deque_baseI7ap_axisILi32ELi2ELi5ELi6EESaIS1_EE19_M_get_Tp_allocatorEv(%"class.std::_Deque_base"* %this) #4 comdat align 2 !dbg !10772 !prof !9726 {
entry:
  %this.addr = alloca %"class.std::_Deque_base"*, align 8
  store %"class.std::_Deque_base"* %this, %"class.std::_Deque_base"** %this.addr, align 8
  call void @llvm.dbg.declare(metadata %"class.std::_Deque_base"** %this.addr, metadata !10773, metadata !DIExpression()), !dbg !10775
  %this1 = load %"class.std::_Deque_base"*, %"class.std::_Deque_base"** %this.addr, align 8
  %_M_impl = getelementptr inbounds %"class.std::_Deque_base", %"class.std::_Deque_base"* %this1, i32 0, i32 0, !dbg !10776
  %0 = bitcast %"struct.std::_Deque_base<ap_axis<32, 2, 5, 6>, std::allocator<ap_axis<32, 2, 5, 6> > >::_Deque_impl"* %_M_impl to %"class.std::allocator.0"*, !dbg !10777
  ret %"class.std::allocator.0"* %0, !dbg !10778
}

; Function Attrs: noinline nounwind optnone uwtable
define linkonce_odr void @_ZNSt11_Deque_baseI7ap_axisILi32ELi2ELi5ELi6EESaIS1_EE18_M_deallocate_nodeEPS1_(%"class.std::_Deque_base"* %this, %struct.ap_axis* %__p) #4 comdat align 2 !dbg !10779 !prof !8748 {
entry:
  %this.addr = alloca %"class.std::_Deque_base"*, align 8
  %__p.addr = alloca %struct.ap_axis*, align 8
  store %"class.std::_Deque_base"* %this, %"class.std::_Deque_base"** %this.addr, align 8
  call void @llvm.dbg.declare(metadata %"class.std::_Deque_base"** %this.addr, metadata !10780, metadata !DIExpression()), !dbg !10781
  store %struct.ap_axis* %__p, %struct.ap_axis** %__p.addr, align 8
  call void @llvm.dbg.declare(metadata %struct.ap_axis** %__p.addr, metadata !10782, metadata !DIExpression()), !dbg !10783
  %this1 = load %"class.std::_Deque_base"*, %"class.std::_Deque_base"** %this.addr, align 8
  %_M_impl = getelementptr inbounds %"class.std::_Deque_base", %"class.std::_Deque_base"* %this1, i32 0, i32 0, !dbg !10784
  %0 = bitcast %"struct.std::_Deque_base<ap_axis<32, 2, 5, 6>, std::allocator<ap_axis<32, 2, 5, 6> > >::_Deque_impl"* %_M_impl to %"class.std::allocator.0"*, !dbg !10784
  %1 = load %struct.ap_axis*, %struct.ap_axis** %__p.addr, align 8, !dbg !10785
  %call = call i64 @_ZSt16__deque_buf_sizem(i64 12), !dbg !10786
  call void @_ZNSt16allocator_traitsISaI7ap_axisILi32ELi2ELi5ELi6EEEE10deallocateERS2_PS1_m(%"class.std::allocator.0"* dereferenceable(1) %0, %struct.ap_axis* %1, i64 %call), !dbg !10787
  ret void, !dbg !10788
}

; Function Attrs: noinline nounwind optnone uwtable
define linkonce_odr void @_ZNSt15_Deque_iteratorI7ap_axisILi32ELi2ELi5ELi6EERS1_PS1_E11_M_set_nodeEPS3_(%"struct.std::_Deque_iterator"* %this, %struct.ap_axis** %__new_node) #4 comdat align 2 !dbg !10789 !prof !9726 {
entry:
  %this.addr = alloca %"struct.std::_Deque_iterator"*, align 8
  %__new_node.addr = alloca %struct.ap_axis**, align 8
  store %"struct.std::_Deque_iterator"* %this, %"struct.std::_Deque_iterator"** %this.addr, align 8
  call void @llvm.dbg.declare(metadata %"struct.std::_Deque_iterator"** %this.addr, metadata !10790, metadata !DIExpression()), !dbg !10791
  store %struct.ap_axis** %__new_node, %struct.ap_axis*** %__new_node.addr, align 8
  call void @llvm.dbg.declare(metadata %struct.ap_axis*** %__new_node.addr, metadata !10792, metadata !DIExpression()), !dbg !10793
  %this1 = load %"struct.std::_Deque_iterator"*, %"struct.std::_Deque_iterator"** %this.addr, align 8
  %0 = load %struct.ap_axis**, %struct.ap_axis*** %__new_node.addr, align 8, !dbg !10794
  %_M_node = getelementptr inbounds %"struct.std::_Deque_iterator", %"struct.std::_Deque_iterator"* %this1, i32 0, i32 3, !dbg !10795
  store %struct.ap_axis** %0, %struct.ap_axis*** %_M_node, align 8, !dbg !10796
  %1 = load %struct.ap_axis**, %struct.ap_axis*** %__new_node.addr, align 8, !dbg !10797
  %2 = load %struct.ap_axis*, %struct.ap_axis** %1, align 8, !dbg !10798
  %_M_first = getelementptr inbounds %"struct.std::_Deque_iterator", %"struct.std::_Deque_iterator"* %this1, i32 0, i32 1, !dbg !10799
  store %struct.ap_axis* %2, %struct.ap_axis** %_M_first, align 8, !dbg !10800
  %_M_first2 = getelementptr inbounds %"struct.std::_Deque_iterator", %"struct.std::_Deque_iterator"* %this1, i32 0, i32 1, !dbg !10801
  %3 = load %struct.ap_axis*, %struct.ap_axis** %_M_first2, align 8, !dbg !10801
  %call = call i64 @_ZNSt15_Deque_iteratorI7ap_axisILi32ELi2ELi5ELi6EERS1_PS1_E14_S_buffer_sizeEv() #3, !dbg !10802
  %add.ptr = getelementptr inbounds %struct.ap_axis, %struct.ap_axis* %3, i64 %call, !dbg !10803
  %_M_last = getelementptr inbounds %"struct.std::_Deque_iterator", %"struct.std::_Deque_iterator"* %this1, i32 0, i32 2, !dbg !10804
  store %struct.ap_axis* %add.ptr, %struct.ap_axis** %_M_last, align 8, !dbg !10805
  ret void, !dbg !10806
}

; Function Attrs: noinline nounwind optnone uwtable
define linkonce_odr void @_ZNSt16allocator_traitsISaI7ap_axisILi32ELi2ELi5ELi6EEEE10deallocateERS2_PS1_m(%"class.std::allocator.0"* dereferenceable(1) %__a, %struct.ap_axis* %__p, i64 %__n) #4 comdat align 2 !dbg !10807 !prof !8748 {
entry:
  %__a.addr = alloca %"class.std::allocator.0"*, align 8
  %__p.addr = alloca %struct.ap_axis*, align 8
  %__n.addr = alloca i64, align 8
  store %"class.std::allocator.0"* %__a, %"class.std::allocator.0"** %__a.addr, align 8
  call void @llvm.dbg.declare(metadata %"class.std::allocator.0"** %__a.addr, metadata !10808, metadata !DIExpression()), !dbg !10809
  store %struct.ap_axis* %__p, %struct.ap_axis** %__p.addr, align 8
  call void @llvm.dbg.declare(metadata %struct.ap_axis** %__p.addr, metadata !10810, metadata !DIExpression()), !dbg !10811
